

Microchip MPLAB XC8 Assembler V2.32 build 20210201212658 
                                                                                               Tue Mar 21 15:46:41 2023

Microchip MPLAB XC8 C Compiler v2.32 (Free license) build 20210201212658 Og1 
     1                           	processor	16F887
     2                           	pagewidth 120
     3                           	opt	flic
     4                           	psect	idataBANK0,global,class=CODE,delta=2,noexec
     5                           	psect	cinit,global,class=CODE,merge=1,delta=2
     6                           	psect	dataBANK0,global,class=BANK0,space=1,delta=1,noexec
     7                           	psect	inittext,global,class=CODE,delta=2
     8                           	psect	cstackCOMMON,global,class=COMMON,space=1,delta=1,noexec
     9                           	psect	maintext,global,class=CODE,split=1,delta=2
    10                           	psect	text1,local,class=CODE,merge=1,delta=2
    11                           	psect	text2,local,class=CODE,merge=1,delta=2
    12                           	psect	text3,local,class=CODE,merge=1,delta=2
    13                           	psect	text4,local,class=CODE,merge=1,delta=2
    14                           	psect	text5,local,class=CODE,merge=1,delta=2
    15                           	psect	text6,local,class=CODE,merge=1,delta=2
    16                           	dabs	1,0x7E,2
    17  0000                     
    18                           ; Version 2.20
    19                           ; Generated 12/02/2020 GMT
    20                           ; 
    21                           ; Copyright © 2020, Microchip Technology Inc. and its subsidiaries ("Microchip")
    22                           ; All rights reserved.
    23                           ; 
    24                           ; This software is developed by Microchip Technology Inc. and its subsidiaries ("Microch
      +                          ip").
    25                           ; 
    26                           ; Redistribution and use in source and binary forms, with or without modification, are
    27                           ; permitted provided that the following conditions are met:
    28                           ; 
    29                           ;     1. Redistributions of source code must retain the above copyright notice, this lis
      +                          t of
    30                           ;        conditions and the following disclaimer.
    31                           ; 
    32                           ;     2. Redistributions in binary form must reproduce the above copyright notice, this 
      +                          list
    33                           ;        of conditions and the following disclaimer in the documentation and/or other
    34                           ;        materials provided with the distribution.
    35                           ; 
    36                           ;     3. Microchip's name may not be used to endorse or promote products derived from th
      +                          is
    37                           ;        software without specific prior written permission.
    38                           ; 
    39                           ; THIS SOFTWARE IS PROVIDED BY MICROCHIP "AS IS" AND ANY EXPRESS OR IMPLIED WARRANTIES,
    40                           ; INCLUDING, BUT NOT LIMITED TO, THE IMPLIED WARRANTIES OF MERCHANTABILITY AND FITNESS F
      +                          OR
    41                           ; PURPOSE ARE DISCLAIMED.  IN NO EVENT SHALL MICROCHIP BE LIABLE FOR ANY DIRECT, INDIREC
      +                          T,
    42                           ; INCIDENTAL, SPECIAL, EXEMPLARY, OR CONSEQUENTIAL DAMAGES (INCLUDING BUT NOT LIMITED TO
    43                           ; PROCUREMENT OF SUBSTITUTE GOODS OR SERVICES; LOSS OF USE, DATA OR PROFITS; OR BUSINESS
    44                           ; INTERRUPTION) HOWSOEVER CAUSED AND ON ANY THEORY OF LIABILITY, WHETHER IN CONTRACT, ST
      +                          RICT
    45                           ; LIABILITY, OR TORT (INCLUDING NEGLIGENCE OR OTHERWISE) ARISING IN ANY WAY OUT OF THE U
      +                          SE OF
    46                           ; THIS SOFTWARE, EVEN IF ADVISED OF THE POSSIBILITY OF SUCH DAMAGE.
    47                           ; 
    48                           ; 
    49                           ; Code-generator required, PIC16F887 Definitions
    50                           ; 
    51                           ; SFR Addresses
    52  0000                     	;# 
    53  0001                     	;# 
    54  0002                     	;# 
    55  0003                     	;# 
    56  0004                     	;# 
    57  0005                     	;# 
    58  0006                     	;# 
    59  0007                     	;# 
    60  0008                     	;# 
    61  0009                     	;# 
    62  000A                     	;# 
    63  000B                     	;# 
    64  000C                     	;# 
    65  000D                     	;# 
    66  000E                     	;# 
    67  000E                     	;# 
    68  000F                     	;# 
    69  0010                     	;# 
    70  0011                     	;# 
    71  0012                     	;# 
    72  0013                     	;# 
    73  0014                     	;# 
    74  0015                     	;# 
    75  0015                     	;# 
    76  0016                     	;# 
    77  0017                     	;# 
    78  0018                     	;# 
    79  0019                     	;# 
    80  001A                     	;# 
    81  001B                     	;# 
    82  001B                     	;# 
    83  001C                     	;# 
    84  001D                     	;# 
    85  001E                     	;# 
    86  001F                     	;# 
    87  0081                     	;# 
    88  0085                     	;# 
    89  0086                     	;# 
    90  0087                     	;# 
    91  0088                     	;# 
    92  0089                     	;# 
    93  008C                     	;# 
    94  008D                     	;# 
    95  008E                     	;# 
    96  008F                     	;# 
    97  0090                     	;# 
    98  0091                     	;# 
    99  0092                     	;# 
   100  0093                     	;# 
   101  0093                     	;# 
   102  0093                     	;# 
   103  0094                     	;# 
   104  0095                     	;# 
   105  0096                     	;# 
   106  0097                     	;# 
   107  0098                     	;# 
   108  0099                     	;# 
   109  009A                     	;# 
   110  009B                     	;# 
   111  009C                     	;# 
   112  009D                     	;# 
   113  009E                     	;# 
   114  009F                     	;# 
   115  0105                     	;# 
   116  0107                     	;# 
   117  0108                     	;# 
   118  0109                     	;# 
   119  010C                     	;# 
   120  010C                     	;# 
   121  010D                     	;# 
   122  010E                     	;# 
   123  010F                     	;# 
   124  0185                     	;# 
   125  0187                     	;# 
   126  0188                     	;# 
   127  0189                     	;# 
   128  018C                     	;# 
   129  018D                     	;# 
   130  0000                     	;# 
   131  0001                     	;# 
   132  0002                     	;# 
   133  0003                     	;# 
   134  0004                     	;# 
   135  0005                     	;# 
   136  0006                     	;# 
   137  0007                     	;# 
   138  0008                     	;# 
   139  0009                     	;# 
   140  000A                     	;# 
   141  000B                     	;# 
   142  000C                     	;# 
   143  000D                     	;# 
   144  000E                     	;# 
   145  000E                     	;# 
   146  000F                     	;# 
   147  0010                     	;# 
   148  0011                     	;# 
   149  0012                     	;# 
   150  0013                     	;# 
   151  0014                     	;# 
   152  0015                     	;# 
   153  0015                     	;# 
   154  0016                     	;# 
   155  0017                     	;# 
   156  0018                     	;# 
   157  0019                     	;# 
   158  001A                     	;# 
   159  001B                     	;# 
   160  001B                     	;# 
   161  001C                     	;# 
   162  001D                     	;# 
   163  001E                     	;# 
   164  001F                     	;# 
   165  0081                     	;# 
   166  0085                     	;# 
   167  0086                     	;# 
   168  0087                     	;# 
   169  0088                     	;# 
   170  0089                     	;# 
   171  008C                     	;# 
   172  008D                     	;# 
   173  008E                     	;# 
   174  008F                     	;# 
   175  0090                     	;# 
   176  0091                     	;# 
   177  0092                     	;# 
   178  0093                     	;# 
   179  0093                     	;# 
   180  0093                     	;# 
   181  0094                     	;# 
   182  0095                     	;# 
   183  0096                     	;# 
   184  0097                     	;# 
   185  0098                     	;# 
   186  0099                     	;# 
   187  009A                     	;# 
   188  009B                     	;# 
   189  009C                     	;# 
   190  009D                     	;# 
   191  009E                     	;# 
   192  009F                     	;# 
   193  0105                     	;# 
   194  0107                     	;# 
   195  0108                     	;# 
   196  0109                     	;# 
   197  010C                     	;# 
   198  010C                     	;# 
   199  010D                     	;# 
   200  010E                     	;# 
   201  010F                     	;# 
   202  0185                     	;# 
   203  0187                     	;# 
   204  0188                     	;# 
   205  0189                     	;# 
   206  018C                     	;# 
   207  018D                     	;# 
   208                           
   209                           	psect	idataBANK0
   210  06B8                     __pidataBANK0:
   211                           
   212                           ;initializer for _n
   213  06B8  3423               	retlw	35
   214  06B9  3400               	retlw	0
   215                           
   216                           ;initializer for _m
   217  06BA  342A               	retlw	42
   218  06BB  3400               	retlw	0
   219                           
   220                           ;initializer for _l
   221  06BC  3439               	retlw	57
   222  06BD  3400               	retlw	0
   223                           
   224                           ;initializer for _k
   225  06BE  3438               	retlw	56
   226  06BF  3400               	retlw	0
   227                           
   228                           ;initializer for _j
   229  06C0  3437               	retlw	55
   230  06C1  3400               	retlw	0
   231                           
   232                           ;initializer for _i
   233  06C2  3436               	retlw	54
   234  06C3  3400               	retlw	0
   235                           
   236                           ;initializer for _f
   237  06C4  3435               	retlw	53
   238  06C5  3400               	retlw	0
   239                           
   240                           ;initializer for _e
   241  06C6  3434               	retlw	52
   242  06C7  3400               	retlw	0
   243                           
   244                           ;initializer for _d
   245  06C8  3433               	retlw	51
   246  06C9  3400               	retlw	0
   247                           
   248                           ;initializer for _c
   249  06CA  3432               	retlw	50
   250  06CB  3400               	retlw	0
   251                           
   252                           ;initializer for _b
   253  06CC  3431               	retlw	49
   254  06CD  3400               	retlw	0
   255                           
   256                           ;initializer for _a
   257  06CE  3430               	retlw	48
   258  06CF  3400               	retlw	0
   259  0005                     _PORTA	set	5
   260  0007                     _PORTC	set	7
   261  0008                     _PORTD	set	8
   262  0042                     _RD2	set	66
   263  0041                     _RD1	set	65
   264  0040                     _RD0	set	64
   265  0029                     _RA1	set	41
   266  002A                     _RA2	set	42
   267  0028                     _RA0	set	40
   268  0046                     _RD6	set	70
   269  0045                     _RD5	set	69
   270  0044                     _RD4	set	68
   271  0043                     _RD3	set	67
   272  0047                     _RD7	set	71
   273  0085                     _TRISA	set	133
   274  0087                     _TRISC	set	135
   275  0088                     _TRISD	set	136
   276  0189                     _ANSELH	set	393
   277  0188                     _ANSEL	set	392
   278                           
   279                           	psect	cinit
   280  07EE                     start_initialization:	
   281                           ; #config settings
   282                           
   283  07EE                     __initialization:
   284                           
   285                           ; Initialize objects allocated to BANK0
   286  07EE  1383               	bcf	3,7	;select IRP bank0
   287  07EF  3038               	movlw	low (__pdataBANK0+24)
   288  07F0  00FD               	movwf	btemp+-1
   289  07F1  3006               	movlw	high __pidataBANK0
   290  07F2  00FE               	movwf	btemp
   291  07F3  30B8               	movlw	low __pidataBANK0
   292  07F4  00FF               	movwf	btemp+1
   293  07F5  3020               	movlw	low __pdataBANK0
   294  07F6  0084               	movwf	4
   295  07F7  120A  118A  26A9  120A  118A  	fcall	init_ram0
   296  07FC                     end_of_initialization:	
   297                           ;End of C runtime variable initialization code
   298                           
   299  07FC                     __end_of__initialization:
   300  07FC  0183               	clrf	3
   301  07FD  120A  118A  2F3A   	ljmp	_main	;jump to C main() function
   302                           
   303                           	psect	dataBANK0
   304  0020                     __pdataBANK0:
   305  0020                     _n:
   306  0020                     	ds	2
   307  0022                     _m:
   308  0022                     	ds	2
   309  0024                     _l:
   310  0024                     	ds	2
   311  0026                     _k:
   312  0026                     	ds	2
   313  0028                     _j:
   314  0028                     	ds	2
   315  002A                     _i:
   316  002A                     	ds	2
   317  002C                     _f:
   318  002C                     	ds	2
   319  002E                     _e:
   320  002E                     	ds	2
   321  0030                     _d:
   322  0030                     	ds	2
   323  0032                     _c:
   324  0032                     	ds	2
   325  0034                     _b:
   326  0034                     	ds	2
   327  0036                     _a:
   328  0036                     	ds	2
   329                           
   330                           	psect	inittext
   331  06A5                     init_fetch0:	
   332                           ;	Called with low address in FSR and high address in W
   333                           
   334  06A5  087E               	movf	btemp,w
   335  06A6  008A               	movwf	10
   336  06A7  087F               	movf	btemp+1,w
   337  06A8  0082               	movwf	2
   338  06A9                     init_ram0:	
   339                           ;Called with:
   340                           ;	high address of idata address in btemp 
   341                           ;	low address of idata address in btemp+1 
   342                           ;	low address of data in FSR
   343                           ;	high address + 1 of data in btemp-1
   344                           
   345  06A9  120A  118A  26A5  120A  118A  	fcall	init_fetch0
   346  06AE  0080               	movwf	0
   347  06AF  0A84               	incf	4,f
   348  06B0  0804               	movf	4,w
   349  06B1  067D               	xorwf	btemp+-1,w
   350  06B2  1903               	btfsc	3,2
   351  06B3  3400               	retlw	0
   352  06B4  0AFF               	incf	btemp+1,f
   353  06B5  1903               	btfsc	3,2
   354  06B6  0AFE               	incf	btemp,f
   355  06B7  2EA9               	goto	init_ram0
   356                           
   357                           	psect	cstackCOMMON
   358  0070                     __pcstackCOMMON:
   359  0070                     ?_first_seg:
   360  0070                     ?_second_seg:	
   361                           ; 1 bytes @ 0x0
   362                           
   363  0070                     ?_third_seg:	
   364                           ; 1 bytes @ 0x0
   365                           
   366  0070                     ?_main:	
   367                           ; 1 bytes @ 0x0
   368                           
   369  0070                     ?_pulse:	
   370                           ; 1 bytes @ 0x0
   371                           
   372  0070                     ??_pulse:	
   373                           ; 1 bytes @ 0x0
   374                           
   375                           
   376                           ; 1 bytes @ 0x0
   377  0070                     	ds	2
   378  0072                     ?_LCD:
   379  0072                     LCD@g:	
   380                           ; 1 bytes @ 0x2
   381                           
   382                           
   383                           ; 2 bytes @ 0x2
   384  0072                     	ds	2
   385  0074                     LCD@h:
   386                           
   387                           ; 2 bytes @ 0x4
   388  0074                     	ds	2
   389  0076                     ??_LCD:
   390  0076                     ?_keypad:	
   391                           ; 1 bytes @ 0x6
   392                           
   393  0076                     keypad@w:	
   394                           ; 1 bytes @ 0x6
   395                           
   396                           
   397                           ; 2 bytes @ 0x6
   398  0076                     	ds	2
   399  0078                     keypad@x:
   400                           
   401                           ; 2 bytes @ 0x8
   402  0078                     	ds	2
   403  007A                     keypad@y:
   404                           
   405                           ; 2 bytes @ 0xA
   406  007A                     	ds	2
   407  007C                     keypad@z:
   408                           
   409                           ; 2 bytes @ 0xC
   410  007C                     	ds	2
   411  007E                     ??_first_seg:
   412  007E                     ??_second_seg:	
   413                           ; 1 bytes @ 0xE
   414                           
   415  007E                     ??_third_seg:	
   416                           ; 1 bytes @ 0xE
   417                           
   418  007E                     ??_main:	
   419                           ; 1 bytes @ 0xE
   420                           
   421  007E                     ??_keypad:	
   422                           ; 1 bytes @ 0xE
   423                           
   424                           
   425                           	psect	maintext
   426  073A                     __pmaintext:	
   427                           ; 1 bytes @ 0xE
   428 ;;
   429 ;;Main: autosize = 0, tempsize = 0, incstack = 0, save=0
   430 ;;
   431 ;; *************** function _main *****************
   432 ;; Defined at:
   433 ;;		line 21 in file "ketpad input.c"
   434 ;; Parameters:    Size  Location     Type
   435 ;;		None
   436 ;; Auto vars:     Size  Location     Type
   437 ;;		None
   438 ;; Return value:  Size  Location     Type
   439 ;;                  1    wreg      void 
   440 ;; Registers used:
   441 ;;		wreg, status,2, status,0, pclath, cstack
   442 ;; Tracked objects:
   443 ;;		On entry : B00/0
   444 ;;		On exit  : 0/0
   445 ;;		Unchanged: 0/0
   446 ;; Data sizes:     COMMON   BANK0   BANK1   BANK3   BANK2
   447 ;;      Params:         0       0       0       0       0
   448 ;;      Locals:         0       0       0       0       0
   449 ;;      Temps:          0       0       0       0       0
   450 ;;      Totals:         0       0       0       0       0
   451 ;;Total ram usage:        0 bytes
   452 ;; Hardware stack levels required when called: 4
   453 ;; This function calls:
   454 ;;		_LCD
   455 ;;		_first_seg
   456 ;;		_second_seg
   457 ;;		_third_seg
   458 ;; This function is called by:
   459 ;;		Startup code after reset
   460 ;; This function uses a non-reentrant model
   461 ;;
   462                           
   463                           
   464                           ;psect for function _main
   465  073A                     _main:
   466  073A                     l805:	
   467                           ;incstack = 0
   468                           ; Regs used in _main: [wreg+status,2+status,0+pclath+cstack]
   469                           
   470                           
   471                           ;ketpad input.c: 23:     TRISD=0Xf8;
   472  073A  30F8               	movlw	248
   473  073B  1683               	bsf	3,5	;RP0=1, select bank1
   474  073C  1303               	bcf	3,6	;RP1=0, select bank1
   475  073D  0088               	movwf	8	;volatile
   476  073E                     l807:
   477                           
   478                           ;ketpad input.c: 24:     PORTD=0X00;
   479  073E  1283               	bcf	3,5	;RP0=0, select bank0
   480  073F  1303               	bcf	3,6	;RP1=0, select bank0
   481  0740  0188               	clrf	8	;volatile
   482  0741                     l809:
   483                           
   484                           ;ketpad input.c: 25:     TRISC=0X00;
   485  0741  1683               	bsf	3,5	;RP0=1, select bank1
   486  0742  1303               	bcf	3,6	;RP1=0, select bank1
   487  0743  0187               	clrf	7	;volatile
   488  0744                     l811:
   489                           
   490                           ;ketpad input.c: 26:     PORTC=0X00;
   491  0744  1283               	bcf	3,5	;RP0=0, select bank0
   492  0745  1303               	bcf	3,6	;RP1=0, select bank0
   493  0746  0187               	clrf	7	;volatile
   494  0747                     l813:
   495                           
   496                           ;ketpad input.c: 27:     TRISA=0X00;
   497  0747  1683               	bsf	3,5	;RP0=1, select bank1
   498  0748  1303               	bcf	3,6	;RP1=0, select bank1
   499  0749  0185               	clrf	5	;volatile
   500  074A                     l815:
   501                           
   502                           ;ketpad input.c: 28:     PORTA=0X00;
   503  074A  1283               	bcf	3,5	;RP0=0, select bank0
   504  074B  1303               	bcf	3,6	;RP1=0, select bank0
   505  074C  0185               	clrf	5	;volatile
   506  074D                     l817:
   507                           
   508                           ;ketpad input.c: 29:     ANSEL=0X00;
   509  074D  1683               	bsf	3,5	;RP0=1, select bank3
   510  074E  1703               	bsf	3,6	;RP1=1, select bank3
   511  074F  0188               	clrf	8	;volatile
   512  0750                     l819:
   513                           
   514                           ;ketpad input.c: 30:     ANSELH=0X00;
   515  0750  0189               	clrf	9	;volatile
   516  0751                     l821:
   517                           
   518                           ;ketpad input.c: 31:     LCD(0x38,0);
   519  0751  3038               	movlw	56
   520  0752  00F2               	movwf	LCD@g
   521  0753  3000               	movlw	0
   522  0754  00F3               	movwf	LCD@g+1
   523  0755  3000               	movlw	0
   524  0756  00F4               	movwf	LCD@h
   525  0757  00F5               	movwf	LCD@h+1
   526  0758  120A  118A  2692  120A  118A  	fcall	_LCD
   527  075D                     l823:
   528                           
   529                           ;ketpad input.c: 32:     LCD(0X0E,0);
   530  075D  300E               	movlw	14
   531  075E  00F2               	movwf	LCD@g
   532  075F  3000               	movlw	0
   533  0760  00F3               	movwf	LCD@g+1
   534  0761  3000               	movlw	0
   535  0762  00F4               	movwf	LCD@h
   536  0763  00F5               	movwf	LCD@h+1
   537  0764  120A  118A  2692  120A  118A  	fcall	_LCD
   538  0769                     l825:
   539                           
   540                           ;ketpad input.c: 34:     {;ketpad input.c: 35:         first_seg();
   541  0769  120A  118A  26E9  120A  118A  	fcall	_first_seg
   542  076E                     l827:
   543                           
   544                           ;ketpad input.c: 36:         second_seg();
   545  076E  120A  118A  2704  120A  118A  	fcall	_second_seg
   546  0773                     l829:
   547                           
   548                           ;ketpad input.c: 37:         third_seg();
   549  0773  120A  118A  271F  120A  118A  	fcall	_third_seg
   550  0778                     l831:
   551                           
   552                           ;ketpad input.c: 38:         if(RD7==1)
   553  0778  1283               	bcf	3,5	;RP0=0, select bank0
   554  0779  1303               	bcf	3,6	;RP1=0, select bank0
   555  077A  1F88               	btfss	8,7	;volatile
   556  077B  2F7D               	goto	u221
   557  077C  2F7E               	goto	u220
   558  077D                     u221:
   559  077D  2F69               	goto	l825
   560  077E                     u220:
   561  077E                     l833:
   562                           
   563                           ;ketpad input.c: 39:         {;ketpad input.c: 40:             LCD(0X01,1);
   564  077E  3001               	movlw	1
   565  077F  00F2               	movwf	LCD@g
   566  0780  3000               	movlw	0
   567  0781  00F3               	movwf	LCD@g+1
   568  0782  3001               	movlw	1
   569  0783  00F4               	movwf	LCD@h
   570  0784  3000               	movlw	0
   571  0785  00F5               	movwf	LCD@h+1
   572  0786  120A  118A  2692  120A  118A  	fcall	_LCD
   573  078B  2F69               	goto	l825
   574  078C  120A  118A  2800   	ljmp	start
   575  078F                     __end_of_main:
   576                           
   577                           	psect	text1
   578  071F                     __ptext1:	
   579 ;; *************** function _third_seg *****************
   580 ;; Defined at:
   581 ;;		line 95 in file "ketpad input.c"
   582 ;; Parameters:    Size  Location     Type
   583 ;;		None
   584 ;; Auto vars:     Size  Location     Type
   585 ;;		None
   586 ;; Return value:  Size  Location     Type
   587 ;;                  1    wreg      void 
   588 ;; Registers used:
   589 ;;		wreg, status,2, status,0, pclath, cstack
   590 ;; Tracked objects:
   591 ;;		On entry : 0/0
   592 ;;		On exit  : 0/0
   593 ;;		Unchanged: 0/0
   594 ;; Data sizes:     COMMON   BANK0   BANK1   BANK3   BANK2
   595 ;;      Params:         0       0       0       0       0
   596 ;;      Locals:         0       0       0       0       0
   597 ;;      Temps:          0       0       0       0       0
   598 ;;      Totals:         0       0       0       0       0
   599 ;;Total ram usage:        0 bytes
   600 ;; Hardware stack levels used: 1
   601 ;; Hardware stack levels required when called: 3
   602 ;; This function calls:
   603 ;;		_keypad
   604 ;; This function is called by:
   605 ;;		_main
   606 ;; This function uses a non-reentrant model
   607 ;;
   608                           
   609                           
   610                           ;psect for function _third_seg
   611  071F                     _third_seg:
   612  071F                     l801:	
   613                           ;incstack = 0
   614                           ; Regs used in _third_seg: [wreg+status,2+status,0+pclath+cstack]
   615                           
   616                           
   617                           ;ketpad input.c: 97:     RD1=0;
   618  071F  1283               	bcf	3,5	;RP0=0, select bank0
   619  0720  1303               	bcf	3,6	;RP1=0, select bank0
   620  0721  1088               	bcf	8,1	;volatile
   621                           
   622                           ;ketpad input.c: 98:     RD2=0;
   623  0722  1108               	bcf	8,2	;volatile
   624                           
   625                           ;ketpad input.c: 99:     RD0=1;
   626  0723  1408               	bsf	8,0	;volatile
   627  0724                     l803:
   628                           
   629                           ;ketpad input.c: 100:     keypad(d,i,l,n);
   630  0724  3033               	movlw	51
   631  0725  00F6               	movwf	keypad@w
   632  0726  3000               	movlw	0
   633  0727  00F7               	movwf	keypad@w+1
   634  0728  3036               	movlw	54
   635  0729  00F8               	movwf	keypad@x
   636  072A  3000               	movlw	0
   637  072B  00F9               	movwf	keypad@x+1
   638  072C  3039               	movlw	57
   639  072D  00FA               	movwf	keypad@y
   640  072E  3000               	movlw	0
   641  072F  00FB               	movwf	keypad@y+1
   642  0730  3023               	movlw	35
   643  0731  00FC               	movwf	keypad@z
   644  0732  3000               	movlw	0
   645  0733  00FD               	movwf	keypad@z+1
   646  0734  120A  118A  278F  120A  118A  	fcall	_keypad
   647  0739                     l115:
   648  0739  0008               	return
   649  073A                     __end_of_third_seg:
   650                           
   651                           	psect	text2
   652  0704                     __ptext2:	
   653 ;; *************** function _second_seg *****************
   654 ;; Defined at:
   655 ;;		line 88 in file "ketpad input.c"
   656 ;; Parameters:    Size  Location     Type
   657 ;;		None
   658 ;; Auto vars:     Size  Location     Type
   659 ;;		None
   660 ;; Return value:  Size  Location     Type
   661 ;;                  1    wreg      void 
   662 ;; Registers used:
   663 ;;		wreg, status,2, status,0, pclath, cstack
   664 ;; Tracked objects:
   665 ;;		On entry : 0/0
   666 ;;		On exit  : 0/0
   667 ;;		Unchanged: 0/0
   668 ;; Data sizes:     COMMON   BANK0   BANK1   BANK3   BANK2
   669 ;;      Params:         0       0       0       0       0
   670 ;;      Locals:         0       0       0       0       0
   671 ;;      Temps:          0       0       0       0       0
   672 ;;      Totals:         0       0       0       0       0
   673 ;;Total ram usage:        0 bytes
   674 ;; Hardware stack levels used: 1
   675 ;; Hardware stack levels required when called: 3
   676 ;; This function calls:
   677 ;;		_keypad
   678 ;; This function is called by:
   679 ;;		_main
   680 ;; This function uses a non-reentrant model
   681 ;;
   682                           
   683                           
   684                           ;psect for function _second_seg
   685  0704                     _second_seg:
   686  0704                     l797:	
   687                           ;incstack = 0
   688                           ; Regs used in _second_seg: [wreg+status,2+status,0+pclath+cstack]
   689                           
   690                           
   691                           ;ketpad input.c: 90:     RD2=0;
   692  0704  1283               	bcf	3,5	;RP0=0, select bank0
   693  0705  1303               	bcf	3,6	;RP1=0, select bank0
   694  0706  1108               	bcf	8,2	;volatile
   695                           
   696                           ;ketpad input.c: 91:     RD0=0;
   697  0707  1008               	bcf	8,0	;volatile
   698                           
   699                           ;ketpad input.c: 92:     RD1=1;
   700  0708  1488               	bsf	8,1	;volatile
   701  0709                     l799:
   702                           
   703                           ;ketpad input.c: 93:     keypad(c,f,k,a);
   704  0709  3032               	movlw	50
   705  070A  00F6               	movwf	keypad@w
   706  070B  3000               	movlw	0
   707  070C  00F7               	movwf	keypad@w+1
   708  070D  3035               	movlw	53
   709  070E  00F8               	movwf	keypad@x
   710  070F  3000               	movlw	0
   711  0710  00F9               	movwf	keypad@x+1
   712  0711  3038               	movlw	56
   713  0712  00FA               	movwf	keypad@y
   714  0713  3000               	movlw	0
   715  0714  00FB               	movwf	keypad@y+1
   716  0715  3030               	movlw	48
   717  0716  00FC               	movwf	keypad@z
   718  0717  3000               	movlw	0
   719  0718  00FD               	movwf	keypad@z+1
   720  0719  120A  118A  278F  120A  118A  	fcall	_keypad
   721  071E                     l112:
   722  071E  0008               	return
   723  071F                     __end_of_second_seg:
   724                           
   725                           	psect	text3
   726  06E9                     __ptext3:	
   727 ;; *************** function _first_seg *****************
   728 ;; Defined at:
   729 ;;		line 81 in file "ketpad input.c"
   730 ;; Parameters:    Size  Location     Type
   731 ;;		None
   732 ;; Auto vars:     Size  Location     Type
   733 ;;		None
   734 ;; Return value:  Size  Location     Type
   735 ;;                  1    wreg      void 
   736 ;; Registers used:
   737 ;;		wreg, status,2, status,0, pclath, cstack
   738 ;; Tracked objects:
   739 ;;		On entry : 0/0
   740 ;;		On exit  : 0/0
   741 ;;		Unchanged: 0/0
   742 ;; Data sizes:     COMMON   BANK0   BANK1   BANK3   BANK2
   743 ;;      Params:         0       0       0       0       0
   744 ;;      Locals:         0       0       0       0       0
   745 ;;      Temps:          0       0       0       0       0
   746 ;;      Totals:         0       0       0       0       0
   747 ;;Total ram usage:        0 bytes
   748 ;; Hardware stack levels used: 1
   749 ;; Hardware stack levels required when called: 3
   750 ;; This function calls:
   751 ;;		_keypad
   752 ;; This function is called by:
   753 ;;		_main
   754 ;; This function uses a non-reentrant model
   755 ;;
   756                           
   757                           
   758                           ;psect for function _first_seg
   759  06E9                     _first_seg:
   760  06E9                     l793:	
   761                           ;incstack = 0
   762                           ; Regs used in _first_seg: [wreg+status,2+status,0+pclath+cstack]
   763                           
   764                           
   765                           ;ketpad input.c: 83:     RD0=0;
   766  06E9  1283               	bcf	3,5	;RP0=0, select bank0
   767  06EA  1303               	bcf	3,6	;RP1=0, select bank0
   768  06EB  1008               	bcf	8,0	;volatile
   769                           
   770                           ;ketpad input.c: 84:     RD1=0;
   771  06EC  1088               	bcf	8,1	;volatile
   772                           
   773                           ;ketpad input.c: 85:     RD2=1;
   774  06ED  1508               	bsf	8,2	;volatile
   775  06EE                     l795:
   776                           
   777                           ;ketpad input.c: 86:     keypad(b,e,j,m);
   778  06EE  3031               	movlw	49
   779  06EF  00F6               	movwf	keypad@w
   780  06F0  3000               	movlw	0
   781  06F1  00F7               	movwf	keypad@w+1
   782  06F2  3034               	movlw	52
   783  06F3  00F8               	movwf	keypad@x
   784  06F4  3000               	movlw	0
   785  06F5  00F9               	movwf	keypad@x+1
   786  06F6  3037               	movlw	55
   787  06F7  00FA               	movwf	keypad@y
   788  06F8  3000               	movlw	0
   789  06F9  00FB               	movwf	keypad@y+1
   790  06FA  302A               	movlw	42
   791  06FB  00FC               	movwf	keypad@z
   792  06FC  3000               	movlw	0
   793  06FD  00FD               	movwf	keypad@z+1
   794  06FE  120A  118A  278F  120A  118A  	fcall	_keypad
   795  0703                     l109:
   796  0703  0008               	return
   797  0704                     __end_of_first_seg:
   798                           
   799                           	psect	text4
   800  078F                     __ptext4:	
   801 ;; *************** function _keypad *****************
   802 ;; Defined at:
   803 ;;		line 44 in file "ketpad input.c"
   804 ;; Parameters:    Size  Location     Type
   805 ;;  w               2    6[COMMON] int 
   806 ;;  x               2    8[COMMON] int 
   807 ;;  y               2   10[COMMON] int 
   808 ;;  z               2   12[COMMON] int 
   809 ;; Auto vars:     Size  Location     Type
   810 ;;		None
   811 ;; Return value:  Size  Location     Type
   812 ;;                  1    wreg      void 
   813 ;; Registers used:
   814 ;;		wreg, status,2, status,0, pclath, cstack
   815 ;; Tracked objects:
   816 ;;		On entry : 0/0
   817 ;;		On exit  : 0/0
   818 ;;		Unchanged: 0/0
   819 ;; Data sizes:     COMMON   BANK0   BANK1   BANK3   BANK2
   820 ;;      Params:         8       0       0       0       0
   821 ;;      Locals:         0       0       0       0       0
   822 ;;      Temps:          0       0       0       0       0
   823 ;;      Totals:         8       0       0       0       0
   824 ;;Total ram usage:        8 bytes
   825 ;; Hardware stack levels used: 1
   826 ;; Hardware stack levels required when called: 2
   827 ;; This function calls:
   828 ;;		_LCD
   829 ;; This function is called by:
   830 ;;		_first_seg
   831 ;;		_second_seg
   832 ;;		_third_seg
   833 ;; This function uses a non-reentrant model
   834 ;;
   835                           
   836                           
   837                           ;psect for function _keypad
   838  078F                     _keypad:
   839  078F                     l783:	
   840                           ;incstack = 0
   841                           ; Regs used in _keypad: [wreg+status,2+status,0+pclath+cstack]
   842                           
   843                           
   844                           ;ketpad input.c: 44: void keypad(int w,int x,int y,int z);ketpad input.c: 45: {;ketpad i
      +                          nput.c: 46:     if(RD3==1)
   845  078F  1283               	bcf	3,5	;RP0=0, select bank0
   846  0790  1303               	bcf	3,6	;RP1=0, select bank0
   847  0791  1D88               	btfss	8,3	;volatile
   848  0792  2F94               	goto	u141
   849  0793  2F95               	goto	u140
   850  0794                     u141:
   851  0794  2FA8               	goto	l84
   852  0795                     u140:
   853  0795                     l785:
   854                           
   855                           ;ketpad input.c: 47:     {;ketpad input.c: 48:         LCD(w,1);
   856  0795  0877               	movf	keypad@w+1,w
   857  0796  00F3               	movwf	LCD@g+1
   858  0797  0876               	movf	keypad@w,w
   859  0798  00F2               	movwf	LCD@g
   860  0799  3001               	movlw	1
   861  079A  00F4               	movwf	LCD@h
   862  079B  3000               	movlw	0
   863  079C  00F5               	movwf	LCD@h+1
   864  079D  120A  118A  2692  120A  118A  	fcall	_LCD
   865  07A2                     l85:	
   866                           ;ketpad input.c: 49:         while(RD3==1);
   867                           
   868  07A2  1283               	bcf	3,5	;RP0=0, select bank0
   869  07A3  1303               	bcf	3,6	;RP1=0, select bank0
   870  07A4  1988               	btfsc	8,3	;volatile
   871  07A5  2FA7               	goto	u151
   872  07A6  2FA8               	goto	u150
   873  07A7                     u151:
   874  07A7  2FA2               	goto	l85
   875  07A8                     u150:
   876  07A8                     l84:	
   877                           ;ketpad input.c: 50:     }
   878                           
   879                           
   880                           ;ketpad input.c: 51:     if(RD4==1)
   881  07A8  1E08               	btfss	8,4	;volatile
   882  07A9  2FAB               	goto	u161
   883  07AA  2FAC               	goto	u160
   884  07AB                     u161:
   885  07AB  2FBF               	goto	l88
   886  07AC                     u160:
   887  07AC                     l787:
   888                           
   889                           ;ketpad input.c: 52:     {;ketpad input.c: 53:         LCD(x,1);
   890  07AC  0879               	movf	keypad@x+1,w
   891  07AD  00F3               	movwf	LCD@g+1
   892  07AE  0878               	movf	keypad@x,w
   893  07AF  00F2               	movwf	LCD@g
   894  07B0  3001               	movlw	1
   895  07B1  00F4               	movwf	LCD@h
   896  07B2  3000               	movlw	0
   897  07B3  00F5               	movwf	LCD@h+1
   898  07B4  120A  118A  2692  120A  118A  	fcall	_LCD
   899  07B9                     l89:	
   900                           ;ketpad input.c: 54:         while(RD4==1);
   901                           
   902  07B9  1283               	bcf	3,5	;RP0=0, select bank0
   903  07BA  1303               	bcf	3,6	;RP1=0, select bank0
   904  07BB  1A08               	btfsc	8,4	;volatile
   905  07BC  2FBE               	goto	u171
   906  07BD  2FBF               	goto	u170
   907  07BE                     u171:
   908  07BE  2FB9               	goto	l89
   909  07BF                     u170:
   910  07BF                     l88:	
   911                           ;ketpad input.c: 55:     }
   912                           
   913                           
   914                           ;ketpad input.c: 56:     if(RD5==1)
   915  07BF  1E88               	btfss	8,5	;volatile
   916  07C0  2FC2               	goto	u181
   917  07C1  2FC3               	goto	u180
   918  07C2                     u181:
   919  07C2  2FD6               	goto	l92
   920  07C3                     u180:
   921  07C3                     l789:
   922                           
   923                           ;ketpad input.c: 57:     {;ketpad input.c: 58:         LCD(y,1);
   924  07C3  087B               	movf	keypad@y+1,w
   925  07C4  00F3               	movwf	LCD@g+1
   926  07C5  087A               	movf	keypad@y,w
   927  07C6  00F2               	movwf	LCD@g
   928  07C7  3001               	movlw	1
   929  07C8  00F4               	movwf	LCD@h
   930  07C9  3000               	movlw	0
   931  07CA  00F5               	movwf	LCD@h+1
   932  07CB  120A  118A  2692  120A  118A  	fcall	_LCD
   933  07D0                     l93:	
   934                           ;ketpad input.c: 59:         while(RD5==1);
   935                           
   936  07D0  1283               	bcf	3,5	;RP0=0, select bank0
   937  07D1  1303               	bcf	3,6	;RP1=0, select bank0
   938  07D2  1A88               	btfsc	8,5	;volatile
   939  07D3  2FD5               	goto	u191
   940  07D4  2FD6               	goto	u190
   941  07D5                     u191:
   942  07D5  2FD0               	goto	l93
   943  07D6                     u190:
   944  07D6                     l92:	
   945                           ;ketpad input.c: 60:     }
   946                           
   947                           
   948                           ;ketpad input.c: 61:     if(RD6==1)
   949  07D6  1F08               	btfss	8,6	;volatile
   950  07D7  2FD9               	goto	u201
   951  07D8  2FDA               	goto	u200
   952  07D9                     u201:
   953  07D9  2FED               	goto	l100
   954  07DA                     u200:
   955  07DA                     l791:
   956                           
   957                           ;ketpad input.c: 62:     {;ketpad input.c: 63:         LCD(z,1);
   958  07DA  087D               	movf	keypad@z+1,w
   959  07DB  00F3               	movwf	LCD@g+1
   960  07DC  087C               	movf	keypad@z,w
   961  07DD  00F2               	movwf	LCD@g
   962  07DE  3001               	movlw	1
   963  07DF  00F4               	movwf	LCD@h
   964  07E0  3000               	movlw	0
   965  07E1  00F5               	movwf	LCD@h+1
   966  07E2  120A  118A  2692  120A  118A  	fcall	_LCD
   967  07E7                     l97:	
   968                           ;ketpad input.c: 64:         while(RD6==1);
   969                           
   970  07E7  1283               	bcf	3,5	;RP0=0, select bank0
   971  07E8  1303               	bcf	3,6	;RP1=0, select bank0
   972  07E9  1B08               	btfsc	8,6	;volatile
   973  07EA  2FEC               	goto	u211
   974  07EB  2FED               	goto	u210
   975  07EC                     u211:
   976  07EC  2FE7               	goto	l97
   977  07ED                     u210:
   978  07ED                     l100:
   979  07ED  0008               	return
   980  07EE                     __end_of_keypad:
   981                           
   982                           	psect	text5
   983  0692                     __ptext5:	
   984 ;; *************** function _LCD *****************
   985 ;; Defined at:
   986 ;;		line 74 in file "ketpad input.c"
   987 ;; Parameters:    Size  Location     Type
   988 ;;  g               2    2[COMMON] int 
   989 ;;  h               2    4[COMMON] int 
   990 ;; Auto vars:     Size  Location     Type
   991 ;;		None
   992 ;; Return value:  Size  Location     Type
   993 ;;                  1    wreg      void 
   994 ;; Registers used:
   995 ;;		wreg, status,2, status,0, pclath, cstack
   996 ;; Tracked objects:
   997 ;;		On entry : 0/0
   998 ;;		On exit  : 0/0
   999 ;;		Unchanged: 0/0
  1000 ;; Data sizes:     COMMON   BANK0   BANK1   BANK3   BANK2
  1001 ;;      Params:         4       0       0       0       0
  1002 ;;      Locals:         0       0       0       0       0
  1003 ;;      Temps:          0       0       0       0       0
  1004 ;;      Totals:         4       0       0       0       0
  1005 ;;Total ram usage:        4 bytes
  1006 ;; Hardware stack levels used: 1
  1007 ;; Hardware stack levels required when called: 1
  1008 ;; This function calls:
  1009 ;;		_pulse
  1010 ;; This function is called by:
  1011 ;;		_main
  1012 ;;		_keypad
  1013 ;; This function uses a non-reentrant model
  1014 ;;
  1015                           
  1016                           
  1017                           ;psect for function _LCD
  1018  0692                     _LCD:
  1019  0692                     l777:	
  1020                           ;incstack = 0
  1021                           ; Regs used in _LCD: [wreg+status,2+status,0+pclath+cstack]
  1022                           
  1023                           
  1024                           ;ketpad input.c: 74: void LCD(int g,int h);ketpad input.c: 75: {;ketpad input.c: 76:    
      +                           RA2=h;
  1025  0692  1874               	btfsc	LCD@h,0
  1026  0693  2E95               	goto	u121
  1027  0694  2E99               	goto	u120
  1028  0695                     u121:
  1029  0695  1283               	bcf	3,5	;RP0=0, select bank0
  1030  0696  1303               	bcf	3,6	;RP1=0, select bank0
  1031  0697  1505               	bsf	5,2	;volatile
  1032  0698  2E9C               	goto	u134
  1033  0699                     u120:
  1034  0699  1283               	bcf	3,5	;RP0=0, select bank0
  1035  069A  1303               	bcf	3,6	;RP1=0, select bank0
  1036  069B  1105               	bcf	5,2	;volatile
  1037  069C                     u134:
  1038                           
  1039                           ;ketpad input.c: 77:     RA1=0;
  1040  069C  1085               	bcf	5,1	;volatile
  1041  069D                     l779:
  1042                           
  1043                           ;ketpad input.c: 78:     PORTC=g;
  1044  069D  0872               	movf	LCD@g,w
  1045  069E  0087               	movwf	7	;volatile
  1046  069F                     l781:
  1047                           
  1048                           ;ketpad input.c: 79:     pulse();
  1049  069F  120A  118A  26D0  120A  118A  	fcall	_pulse
  1050  06A4                     l106:
  1051  06A4  0008               	return
  1052  06A5                     __end_of_LCD:
  1053                           
  1054                           	psect	text6
  1055  06D0                     __ptext6:	
  1056 ;; *************** function _pulse *****************
  1057 ;; Defined at:
  1058 ;;		line 67 in file "ketpad input.c"
  1059 ;; Parameters:    Size  Location     Type
  1060 ;;		None
  1061 ;; Auto vars:     Size  Location     Type
  1062 ;;		None
  1063 ;; Return value:  Size  Location     Type
  1064 ;;                  1    wreg      void 
  1065 ;; Registers used:
  1066 ;;		wreg
  1067 ;; Tracked objects:
  1068 ;;		On entry : 0/0
  1069 ;;		On exit  : 0/0
  1070 ;;		Unchanged: 0/0
  1071 ;; Data sizes:     COMMON   BANK0   BANK1   BANK3   BANK2
  1072 ;;      Params:         0       0       0       0       0
  1073 ;;      Locals:         0       0       0       0       0
  1074 ;;      Temps:          2       0       0       0       0
  1075 ;;      Totals:         2       0       0       0       0
  1076 ;;Total ram usage:        2 bytes
  1077 ;; Hardware stack levels used: 1
  1078 ;; This function calls:
  1079 ;;		Nothing
  1080 ;; This function is called by:
  1081 ;;		_LCD
  1082 ;; This function uses a non-reentrant model
  1083 ;;
  1084                           
  1085                           
  1086                           ;psect for function _pulse
  1087  06D0                     _pulse:
  1088  06D0                     l771:	
  1089                           ;incstack = 0
  1090                           ; Regs used in _pulse: [wreg]
  1091                           
  1092                           
  1093                           ;ketpad input.c: 69:     RA0=1;
  1094  06D0  1283               	bcf	3,5	;RP0=0, select bank0
  1095  06D1  1303               	bcf	3,6	;RP1=0, select bank0
  1096  06D2  1405               	bsf	5,0	;volatile
  1097  06D3                     l773:
  1098                           
  1099                           ;ketpad input.c: 70:     _delay((unsigned long)((500)*(400000/4000.0)));
  1100  06D3  3041               	movlw	65
  1101  06D4  00F1               	movwf	??_pulse+1
  1102  06D5  30EE               	movlw	238
  1103  06D6  00F0               	movwf	??_pulse
  1104  06D7                     u237:
  1105  06D7  0BF0               	decfsz	??_pulse,f
  1106  06D8  2ED7               	goto	u237
  1107  06D9  0BF1               	decfsz	??_pulse+1,f
  1108  06DA  2ED7               	goto	u237
  1109  06DB  0000               	nop
  1110  06DC                     l775:
  1111                           
  1112                           ;ketpad input.c: 71:     RA0=0;
  1113  06DC  1283               	bcf	3,5	;RP0=0, select bank0
  1114  06DD  1303               	bcf	3,6	;RP1=0, select bank0
  1115  06DE  1005               	bcf	5,0	;volatile
  1116                           
  1117                           ;ketpad input.c: 72:     _delay((unsigned long)((500)*(400000/4000.0)));
  1118  06DF  3041               	movlw	65
  1119  06E0  00F1               	movwf	??_pulse+1
  1120  06E1  30EE               	movlw	238
  1121  06E2  00F0               	movwf	??_pulse
  1122  06E3                     u247:
  1123  06E3  0BF0               	decfsz	??_pulse,f
  1124  06E4  2EE3               	goto	u247
  1125  06E5  0BF1               	decfsz	??_pulse+1,f
  1126  06E6  2EE3               	goto	u247
  1127  06E7  0000               	nop
  1128  06E8                     l103:
  1129  06E8  0008               	return
  1130  06E9                     __end_of_pulse:
  1131  007E                     btemp	set	126	;btemp
  1132  007E                     wtemp0	set	126

Data Sizes:
    Strings     0
    Constant    0
    Data        24
    BSS         0
    Persistent  0
    Stack       0

Auto Spaces:
    Space          Size  Autos    Used
    COMMON           14     14      14
    BANK0            80      0      24
    BANK1            80      0       0
    BANK3            96      0       0
    BANK2            96      0       0

Pointer List with Targets:

    None.

Critical Paths under _main in COMMON

    _third_seg->_keypad
    _second_seg->_keypad
    _first_seg->_keypad
    _keypad->_LCD
    _LCD->_pulse

Critical Paths under _main in BANK0

    None.

Critical Paths under _main in BANK1

    None.

Critical Paths under _main in BANK3

    None.

Critical Paths under _main in BANK2

    None.

Call Graph Tables:

 ---------------------------------------------------------------------------------
 (Depth) Function   	        Calls       Base Space   Used Autos Params    Refs
 ---------------------------------------------------------------------------------
 (0) _main                                                 0     0      0    7432
                                _LCD
                          _first_seg
                         _second_seg
                          _third_seg
 ---------------------------------------------------------------------------------
 (1) _third_seg                                            0     0      0    2108
                             _keypad
 ---------------------------------------------------------------------------------
 (1) _second_seg                                           0     0      0    2108
                             _keypad
 ---------------------------------------------------------------------------------
 (1) _first_seg                                            0     0      0    2108
                             _keypad
 ---------------------------------------------------------------------------------
 (2) _keypad                                               8     0      8    2108
                                              6 COMMON     8     0      8
                                _LCD
 ---------------------------------------------------------------------------------
 (3) _LCD                                                  4     0      4    1108
                                              2 COMMON     4     0      4
                              _pulse
 ---------------------------------------------------------------------------------
 (4) _pulse                                                2     2      0       0
                                              0 COMMON     2     2      0
 ---------------------------------------------------------------------------------
 Estimated maximum stack depth 4
 ---------------------------------------------------------------------------------

 Call Graph Graphs:

 _main (ROOT)
   _LCD
     _pulse
   _first_seg
     _keypad
       _LCD
   _second_seg
     _keypad
   _third_seg
     _keypad

 Address spaces:
Name               Size   Autos  Total    Cost      Usage
BANK3               60      0       0       9        0.0%
BITBANK3            60      0       0       8        0.0%
SFR3                 0      0       0       4        0.0%
BITSFR3              0      0       0       4        0.0%
BANK2               60      0       0      11        0.0%
BITBANK2            60      0       0      10        0.0%
SFR2                 0      0       0       5        0.0%
BITSFR2              0      0       0       5        0.0%
BANK1               50      0       0       7        0.0%
BITBANK1            50      0       0       6        0.0%
SFR1                 0      0       0       2        0.0%
BITSFR1              0      0       0       2        0.0%
BANK0               50      0      18       5       30.0%
BITBANK0            50      0       0       4        0.0%
SFR0                 0      0       0       1        0.0%
BITSFR0              0      0       0       1        0.0%
COMMON               E      E       E       1      100.0%
BITCOMMON            E      0       0       0        0.0%
CODE                 0      0       0       0        0.0%
DATA                 0      0      26      12        0.0%
ABS                  0      0      26       3        0.0%
NULL                 0      0       0       0        0.0%
STACK                0      0       0       2        0.0%
EEDATA             100      0       0       0        0.0%


Microchip Technology PIC Macro Assembler V2.32 build 20210201212658 
Symbol Table                                                                                   Tue Mar 21 15:46:41 2023

                      _a 0036                        _b 0034                        _c 0032  
                      _d 0030                        _e 002E                        _f 002C  
                      _i 002A                        _j 0028                        _k 0026  
                      _l 0024                        _m 0022                        _n 0020  
                      pc 0002                       l92 07D6                       l84 07A8  
                     l93 07D0                       l85 07A2                       l88 07BF  
                     l97 07E7                       l89 07B9                       fsr 0004  
                    l100 07ED                      l103 06E8                      l112 071E  
                    l106 06A4                      l115 0739                      l109 0703  
                    l801 071F                      l803 0724                      l811 0744  
                    l821 0751                      l813 0747                      l805 073A  
                    l831 0778                      l823 075D                      l815 074A  
                    l807 073E                      l833 077E                      l825 0769  
                    l817 074D                      l809 0741                      l771 06D0  
                    l827 076E                      l819 0750                      l773 06D3  
                    l781 069F                      l829 0773                      l775 06DC  
                    l791 07DA                      l783 078F                      l777 0692  
                    l785 0795                      l793 06E9                      l779 069D  
                    l787 07AC                      l795 06EE                      l789 07C3  
                    l797 0704                      l799 0709                      _RA0 0028  
                    _LCD 0692                      _RA1 0029                      _RA2 002A  
                    _RD0 0040                      _RD1 0041                      _RD2 0042  
                    _RD3 0043                      _RD4 0044                      _RD5 0045  
                    _RD6 0046                      _RD7 0047                      u120 0699  
                    u200 07DA                      u121 0695                      u201 07D9  
                    u210 07ED                      u211 07EC                      u140 0795  
                    u220 077E                      u141 0794                      u221 077D  
                    u134 069C                      u150 07A8                      u151 07A7  
                    u160 07AC                      u161 07AB                      u170 07BF  
                    u171 07BE                      u180 07C3                      u237 06D7  
                    u181 07C2                      u190 07D6                      u247 06E3  
                    u191 07D5                      indf 0000                     LCD@g 0072  
                   LCD@h 0074                     ?_LCD 0072                     _main 073A  
                   btemp 007E                     start 0000                    ??_LCD 0076  
                  ?_main 0070                    _ANSEL 0188                    _PORTA 0005  
                  _PORTC 0007                    _PORTD 0008                    _TRISA 0085  
                  _TRISC 0087                    _TRISD 0088                    _pulse 06D0  
                  pclath 000A                    status 0003                    wtemp0 007E  
        __initialization 07EE             __end_of_main 078F                   ??_main 007E  
                 ?_pulse 0070                   _ANSELH 0189                   _keypad 078F  
__end_of__initialization 07FC           __pcstackCOMMON 0070             __pidataBANK0 06B8  
          __end_of_pulse 06E9                  ??_pulse 0070       __size_of_first_seg 001B  
             __pmaintext 073A                  ?_keypad 0076       __size_of_third_seg 001B  
        __size_of_keypad 005F        __end_of_first_seg 0704                  __ptext1 071F  
                __ptext2 0704                  __ptext3 06E9                  __ptext4 078F  
                __ptext5 0692                  __ptext6 06D0             __size_of_LCD 0013  
   end_of_initialization 07FC               _second_seg 0704                  keypad@w 0076  
                keypad@x 0078                  keypad@y 007A                  keypad@z 007C  
      __end_of_third_seg 073A           __end_of_keypad 07EE      start_initialization 07EE  
            __end_of_LCD 06A5              ?_second_seg 0070               init_fetch0 06A5  
            __pdataBANK0 0020                 ??_keypad 007E                ___latbits 0002  
    __size_of_second_seg 001B                _first_seg 06E9           __size_of_pulse 0019  
              _third_seg 071F               ?_first_seg 0070               ?_third_seg 0070  
           ??_second_seg 007E            __size_of_main 0055       __end_of_second_seg 071F  
            ??_first_seg 007E                 init_ram0 06A9              ??_third_seg 007E  
