

Microchip MPLAB XC8 Assembler V2.32 build 20210201212658 
                                                                                               Tue Apr 04 21:30:22 2023

Microchip MPLAB XC8 C Compiler v2.32 (Free license) build 20210201212658 Og1 
     1                           	processor	16F887
     2                           	pagewidth 120
     3                           	opt	flic
     4                           	psect	cinit,global,class=CODE,merge=1,delta=2
     5                           	psect	bssBANK0,global,class=BANK0,space=1,delta=1,noexec
     6                           	psect	cstackCOMMON,global,class=COMMON,space=1,delta=1,noexec
     7                           	psect	cstackBANK0,global,class=BANK0,space=1,delta=1,noexec
     8                           	psect	maintext,global,class=CODE,split=1,delta=2
     9                           	psect	text1,local,class=CODE,merge=1,delta=2
    10                           	psect	text2,local,class=CODE,merge=1,delta=2,group=1
    11                           	psect	text3,local,class=CODE,merge=1,delta=2,group=1
    12                           	psect	text4,local,class=CODE,merge=1,delta=2,group=1
    13                           	psect	text5,local,class=CODE,merge=1,delta=2,group=1
    14                           	psect	text6,local,class=CODE,merge=1,delta=2,group=1
    15                           	psect	text7,local,class=CODE,merge=1,delta=2
    16                           	psect	text8,local,class=CODE,merge=1,delta=2
    17                           	psect	text9,local,class=CODE,merge=1,delta=2,group=1
    18                           	psect	text10,local,class=CODE,merge=1,delta=2,group=1
    19                           	psect	text11,local,class=CODE,merge=1,delta=2
    20                           	psect	text12,local,class=CODE,merge=1,delta=2
    21                           	dabs	1,0x7E,2
    22  0000                     
    23                           ; Version 2.20
    24                           ; Generated 12/02/2020 GMT
    25                           ; 
    26                           ; Copyright © 2020, Microchip Technology Inc. and its subsidiaries ("Microchip")
    27                           ; All rights reserved.
    28                           ; 
    29                           ; This software is developed by Microchip Technology Inc. and its subsidiaries ("Microch
      +                          ip").
    30                           ; 
    31                           ; Redistribution and use in source and binary forms, with or without modification, are
    32                           ; permitted provided that the following conditions are met:
    33                           ; 
    34                           ;     1. Redistributions of source code must retain the above copyright notice, this lis
      +                          t of
    35                           ;        conditions and the following disclaimer.
    36                           ; 
    37                           ;     2. Redistributions in binary form must reproduce the above copyright notice, this 
      +                          list
    38                           ;        of conditions and the following disclaimer in the documentation and/or other
    39                           ;        materials provided with the distribution.
    40                           ; 
    41                           ;     3. Microchip's name may not be used to endorse or promote products derived from th
      +                          is
    42                           ;        software without specific prior written permission.
    43                           ; 
    44                           ; THIS SOFTWARE IS PROVIDED BY MICROCHIP "AS IS" AND ANY EXPRESS OR IMPLIED WARRANTIES,
    45                           ; INCLUDING, BUT NOT LIMITED TO, THE IMPLIED WARRANTIES OF MERCHANTABILITY AND FITNESS F
      +                          OR
    46                           ; PURPOSE ARE DISCLAIMED.  IN NO EVENT SHALL MICROCHIP BE LIABLE FOR ANY DIRECT, INDIREC
      +                          T,
    47                           ; INCIDENTAL, SPECIAL, EXEMPLARY, OR CONSEQUENTIAL DAMAGES (INCLUDING BUT NOT LIMITED TO
    48                           ; PROCUREMENT OF SUBSTITUTE GOODS OR SERVICES; LOSS OF USE, DATA OR PROFITS; OR BUSINESS
    49                           ; INTERRUPTION) HOWSOEVER CAUSED AND ON ANY THEORY OF LIABILITY, WHETHER IN CONTRACT, ST
      +                          RICT
    50                           ; LIABILITY, OR TORT (INCLUDING NEGLIGENCE OR OTHERWISE) ARISING IN ANY WAY OUT OF THE U
      +                          SE OF
    51                           ; THIS SOFTWARE, EVEN IF ADVISED OF THE POSSIBILITY OF SUCH DAMAGE.
    52                           ; 
    53                           ; 
    54                           ; Code-generator required, PIC16F887 Definitions
    55                           ; 
    56                           ; SFR Addresses
    57  0000                     	;# 
    58  0001                     	;# 
    59  0002                     	;# 
    60  0003                     	;# 
    61  0004                     	;# 
    62  0005                     	;# 
    63  0006                     	;# 
    64  0007                     	;# 
    65  0008                     	;# 
    66  0009                     	;# 
    67  000A                     	;# 
    68  000B                     	;# 
    69  000C                     	;# 
    70  000D                     	;# 
    71  000E                     	;# 
    72  000E                     	;# 
    73  000F                     	;# 
    74  0010                     	;# 
    75  0011                     	;# 
    76  0012                     	;# 
    77  0013                     	;# 
    78  0014                     	;# 
    79  0015                     	;# 
    80  0015                     	;# 
    81  0016                     	;# 
    82  0017                     	;# 
    83  0018                     	;# 
    84  0019                     	;# 
    85  001A                     	;# 
    86  001B                     	;# 
    87  001B                     	;# 
    88  001C                     	;# 
    89  001D                     	;# 
    90  001E                     	;# 
    91  001F                     	;# 
    92  0081                     	;# 
    93  0085                     	;# 
    94  0086                     	;# 
    95  0087                     	;# 
    96  0088                     	;# 
    97  0089                     	;# 
    98  008C                     	;# 
    99  008D                     	;# 
   100  008E                     	;# 
   101  008F                     	;# 
   102  0090                     	;# 
   103  0091                     	;# 
   104  0092                     	;# 
   105  0093                     	;# 
   106  0093                     	;# 
   107  0093                     	;# 
   108  0094                     	;# 
   109  0095                     	;# 
   110  0096                     	;# 
   111  0097                     	;# 
   112  0098                     	;# 
   113  0099                     	;# 
   114  009A                     	;# 
   115  009B                     	;# 
   116  009C                     	;# 
   117  009D                     	;# 
   118  009E                     	;# 
   119  009F                     	;# 
   120  0105                     	;# 
   121  0107                     	;# 
   122  0108                     	;# 
   123  0109                     	;# 
   124  010C                     	;# 
   125  010C                     	;# 
   126  010D                     	;# 
   127  010E                     	;# 
   128  010F                     	;# 
   129  0185                     	;# 
   130  0187                     	;# 
   131  0188                     	;# 
   132  0189                     	;# 
   133  018C                     	;# 
   134  018D                     	;# 
   135  0000                     	;# 
   136  0001                     	;# 
   137  0002                     	;# 
   138  0003                     	;# 
   139  0004                     	;# 
   140  0005                     	;# 
   141  0006                     	;# 
   142  0007                     	;# 
   143  0008                     	;# 
   144  0009                     	;# 
   145  000A                     	;# 
   146  000B                     	;# 
   147  000C                     	;# 
   148  000D                     	;# 
   149  000E                     	;# 
   150  000E                     	;# 
   151  000F                     	;# 
   152  0010                     	;# 
   153  0011                     	;# 
   154  0012                     	;# 
   155  0013                     	;# 
   156  0014                     	;# 
   157  0015                     	;# 
   158  0015                     	;# 
   159  0016                     	;# 
   160  0017                     	;# 
   161  0018                     	;# 
   162  0019                     	;# 
   163  001A                     	;# 
   164  001B                     	;# 
   165  001B                     	;# 
   166  001C                     	;# 
   167  001D                     	;# 
   168  001E                     	;# 
   169  001F                     	;# 
   170  0081                     	;# 
   171  0085                     	;# 
   172  0086                     	;# 
   173  0087                     	;# 
   174  0088                     	;# 
   175  0089                     	;# 
   176  008C                     	;# 
   177  008D                     	;# 
   178  008E                     	;# 
   179  008F                     	;# 
   180  0090                     	;# 
   181  0091                     	;# 
   182  0092                     	;# 
   183  0093                     	;# 
   184  0093                     	;# 
   185  0093                     	;# 
   186  0094                     	;# 
   187  0095                     	;# 
   188  0096                     	;# 
   189  0097                     	;# 
   190  0098                     	;# 
   191  0099                     	;# 
   192  009A                     	;# 
   193  009B                     	;# 
   194  009C                     	;# 
   195  009D                     	;# 
   196  009E                     	;# 
   197  009F                     	;# 
   198  0105                     	;# 
   199  0107                     	;# 
   200  0108                     	;# 
   201  0109                     	;# 
   202  010C                     	;# 
   203  010C                     	;# 
   204  010D                     	;# 
   205  010E                     	;# 
   206  010F                     	;# 
   207  0185                     	;# 
   208  0187                     	;# 
   209  0188                     	;# 
   210  0189                     	;# 
   211  018C                     	;# 
   212  018D                     	;# 
   213  001E                     _ADRESH	set	30
   214  001F                     _ADCON0	set	31
   215  0009                     _PORTE	set	9
   216  0008                     _PORTD	set	8
   217  0005                     _PORTA	set	5
   218  00F9                     _GO	set	249
   219  0048                     _RE0	set	72
   220  0049                     _RE1	set	73
   221  009E                     _ADRESL	set	158
   222  009F                     _ADCON1	set	159
   223  0089                     _TRISE	set	137
   224  0088                     _TRISD	set	136
   225  0085                     _TRISA	set	133
   226  0189                     _ANSELH	set	393
   227  0188                     _ANSEL	set	392
   228                           
   229                           	psect	cinit
   230  07F4                     start_initialization:	
   231                           ; #config settings
   232                           
   233  07F4                     __initialization:
   234                           
   235                           ; Clear objects allocated to BANK0
   236  07F4  1283               	bcf	3,5	;RP0=0, select bank0
   237  07F5  1303               	bcf	3,6	;RP1=0, select bank0
   238  07F6  01E0               	clrf	__pbssBANK0& (0+127)
   239  07F7  01E1               	clrf	(__pbssBANK0+1)& (0+127)
   240  07F8  01E2               	clrf	(__pbssBANK0+2)& (0+127)
   241  07F9  01E3               	clrf	(__pbssBANK0+3)& (0+127)
   242  07FA  01E4               	clrf	(__pbssBANK0+4)& (0+127)
   243  07FB  01E5               	clrf	(__pbssBANK0+5)& (0+127)
   244  07FC                     end_of_initialization:	
   245                           ;End of C runtime variable initialization code
   246                           
   247  07FC                     __end_of__initialization:
   248  07FC  0183               	clrf	3
   249  07FD  120A  158A  2DF9   	ljmp	_main	;jump to C main() function
   250                           
   251                           	psect	bssBANK0
   252  0060                     __pbssBANK0:
   253  0060                     _DV:
   254  0060                     	ds	2
   255  0062                     _low:
   256  0062                     	ds	2
   257  0064                     _high:
   258  0064                     	ds	2
   259                           
   260                           	psect	cstackCOMMON
   261  0070                     __pcstackCOMMON:
   262  0070                     ?_adc:
   263  0070                     ?_voltage:	
   264                           ; 1 bytes @ 0x0
   265                           
   266  0070                     ?_main:	
   267                           ; 1 bytes @ 0x0
   268                           
   269  0070                     ?_pulse:	
   270                           ; 1 bytes @ 0x0
   271                           
   272  0070                     ??_pulse:	
   273                           ; 1 bytes @ 0x0
   274                           
   275  0070                     ?__Umul8_16:	
   276                           ; 1 bytes @ 0x0
   277                           
   278  0070                     ?___awmod:	
   279                           ; 2 bytes @ 0x0
   280                           
   281  0070                     ?___xxtofl:	
   282                           ; 2 bytes @ 0x0
   283                           
   284  0070                     __Umul8_16@multiplicand:	
   285                           ; 4 bytes @ 0x0
   286                           
   287  0070                     ___awmod@divisor:	
   288                           ; 1 bytes @ 0x0
   289                           
   290  0070                     ___xxtofl@val:	
   291                           ; 2 bytes @ 0x0
   292                           
   293                           
   294                           ; 4 bytes @ 0x0
   295  0070                     	ds	1
   296  0071                     ?_LCD:
   297  0071                     LCD@g:	
   298                           ; 1 bytes @ 0x1
   299                           
   300                           
   301                           ; 2 bytes @ 0x1
   302  0071                     	ds	1
   303  0072                     ??__Umul8_16:
   304  0072                     ___awmod@dividend:	
   305                           ; 1 bytes @ 0x2
   306                           
   307                           
   308                           ; 2 bytes @ 0x2
   309  0072                     	ds	1
   310  0073                     LCD@h:
   311                           
   312                           ; 2 bytes @ 0x3
   313  0073                     	ds	1
   314  0074                     ??___awmod:
   315  0074                     ??___xxtofl:	
   316                           ; 1 bytes @ 0x4
   317                           
   318  0074                     __Umul8_16@product:	
   319                           ; 1 bytes @ 0x4
   320                           
   321                           
   322                           ; 2 bytes @ 0x4
   323  0074                     	ds	1
   324  0075                     ??_LCD:
   325  0075                     ___awmod@counter:	
   326                           ; 1 bytes @ 0x5
   327                           
   328                           
   329                           ; 1 bytes @ 0x5
   330  0075                     	ds	1
   331  0076                     ___awmod@sign:
   332  0076                     __Umul8_16@word_mpld:	
   333                           ; 1 bytes @ 0x6
   334                           
   335                           
   336                           ; 2 bytes @ 0x6
   337  0076                     	ds	1
   338  0077                     ?___awdiv:
   339  0077                     ___awdiv@divisor:	
   340                           ; 2 bytes @ 0x7
   341                           
   342                           
   343                           ; 2 bytes @ 0x7
   344  0077                     	ds	1
   345  0078                     __Umul8_16@multiplier:
   346  0078                     ___xxtofl@sign:	
   347                           ; 1 bytes @ 0x8
   348                           
   349                           
   350                           ; 1 bytes @ 0x8
   351  0078                     	ds	1
   352  0079                     ___xxtofl@exp:
   353  0079                     ___awdiv@dividend:	
   354                           ; 1 bytes @ 0x9
   355                           
   356                           
   357                           ; 2 bytes @ 0x9
   358  0079                     	ds	1
   359  007A                     ___xxtofl@arg:
   360                           
   361                           ; 4 bytes @ 0xA
   362  007A                     	ds	1
   363  007B                     ??___awdiv:
   364                           
   365                           ; 1 bytes @ 0xB
   366  007B                     	ds	1
   367  007C                     ??_adc:
   368  007C                     ??_display:	
   369                           ; 1 bytes @ 0xC
   370                           
   371                           
   372                           ; 1 bytes @ 0xC
   373  007C                     	ds	2
   374  007E                     ??_voltage:
   375  007E                     ??_main:	
   376                           ; 1 bytes @ 0xE
   377                           
   378                           
   379                           	psect	cstackBANK0
   380  0020                     __pcstackBANK0:	
   381                           ; 1 bytes @ 0xE
   382                           
   383  0020                     ?___flmul:
   384  0020                     ___awdiv@counter:	
   385                           ; 4 bytes @ 0x0
   386                           
   387  0020                     ___flmul@b:	
   388                           ; 1 bytes @ 0x0
   389                           
   390                           
   391                           ; 4 bytes @ 0x0
   392  0020                     	ds	1
   393  0021                     ___awdiv@sign:
   394                           
   395                           ; 1 bytes @ 0x1
   396  0021                     	ds	1
   397  0022                     ___awdiv@quotient:
   398                           
   399                           ; 2 bytes @ 0x2
   400  0022                     	ds	2
   401  0024                     ?_display:
   402  0024                     display@k:	
   403                           ; 1 bytes @ 0x4
   404                           
   405  0024                     ___flmul@a:	
   406                           ; 2 bytes @ 0x4
   407                           
   408                           
   409                           ; 4 bytes @ 0x4
   410  0024                     	ds	2
   411  0026                     display@a:
   412                           
   413                           ; 2 bytes @ 0x6
   414  0026                     	ds	2
   415  0028                     ??___flmul:
   416  0028                     display@b:	
   417                           ; 1 bytes @ 0x8
   418                           
   419                           
   420                           ; 2 bytes @ 0x8
   421  0028                     	ds	2
   422  002A                     display@c:
   423                           
   424                           ; 2 bytes @ 0xA
   425  002A                     	ds	2
   426  002C                     display@d:
   427                           
   428                           ; 2 bytes @ 0xC
   429  002C                     	ds	1
   430  002D                     ___flmul@sign:
   431                           
   432                           ; 1 bytes @ 0xD
   433  002D                     	ds	1
   434  002E                     ___flmul@grs:
   435                           
   436                           ; 4 bytes @ 0xE
   437  002E                     	ds	4
   438  0032                     ___flmul@aexp:
   439                           
   440                           ; 1 bytes @ 0x12
   441  0032                     	ds	1
   442  0033                     ___flmul@bexp:
   443                           
   444                           ; 1 bytes @ 0x13
   445  0033                     	ds	1
   446  0034                     ___flmul@prod:
   447                           
   448                           ; 4 bytes @ 0x14
   449  0034                     	ds	4
   450  0038                     ___flmul@temp:
   451                           
   452                           ; 2 bytes @ 0x18
   453  0038                     	ds	2
   454  003A                     ?___fltol:
   455  003A                     ?___fldiv:	
   456                           ; 4 bytes @ 0x1A
   457                           
   458  003A                     ___fltol@f1:	
   459                           ; 4 bytes @ 0x1A
   460                           
   461  003A                     ___fldiv@a:	
   462                           ; 4 bytes @ 0x1A
   463                           
   464                           
   465                           ; 4 bytes @ 0x1A
   466  003A                     	ds	4
   467  003E                     ??___fltol:
   468  003E                     ___fldiv@b:	
   469                           ; 1 bytes @ 0x1E
   470                           
   471                           
   472                           ; 4 bytes @ 0x1E
   473  003E                     	ds	4
   474  0042                     ??___fldiv:
   475                           
   476                           ; 1 bytes @ 0x22
   477  0042                     	ds	1
   478  0043                     ___fltol@sign1:
   479                           
   480                           ; 1 bytes @ 0x23
   481  0043                     	ds	1
   482  0044                     ___fltol@exp1:
   483                           
   484                           ; 1 bytes @ 0x24
   485  0044                     	ds	3
   486  0047                     ___fldiv@rem:
   487                           
   488                           ; 4 bytes @ 0x27
   489  0047                     	ds	4
   490  004B                     ___fldiv@sign:
   491                           
   492                           ; 1 bytes @ 0x2B
   493  004B                     	ds	1
   494  004C                     ___fldiv@new_exp:
   495                           
   496                           ; 2 bytes @ 0x2C
   497  004C                     	ds	2
   498  004E                     ___fldiv@grs:
   499                           
   500                           ; 4 bytes @ 0x2E
   501  004E                     	ds	4
   502  0052                     ___fldiv@bexp:
   503                           
   504                           ; 1 bytes @ 0x32
   505  0052                     	ds	1
   506  0053                     ___fldiv@aexp:
   507                           
   508                           ; 1 bytes @ 0x33
   509  0053                     	ds	1
   510  0054                     voltage@x:
   511                           
   512                           ; 4 bytes @ 0x34
   513  0054                     	ds	4
   514  0058                     voltage@a:
   515                           
   516                           ; 2 bytes @ 0x38
   517  0058                     	ds	2
   518  005A                     voltage@b:
   519                           
   520                           ; 2 bytes @ 0x3A
   521  005A                     	ds	2
   522  005C                     voltage@c:
   523                           
   524                           ; 2 bytes @ 0x3C
   525  005C                     	ds	2
   526  005E                     voltage@d:
   527                           
   528                           ; 2 bytes @ 0x3E
   529  005E                     	ds	2
   530                           
   531                           	psect	maintext
   532  0DF9                     __pmaintext:	
   533 ;;
   534 ;;Main: autosize = 0, tempsize = 0, incstack = 0, save=0
   535 ;;
   536 ;; *************** function _main *****************
   537 ;; Defined at:
   538 ;;		line 17 in file "ADC TO FIND VOLTAGE.c"
   539 ;; Parameters:    Size  Location     Type
   540 ;;		None
   541 ;; Auto vars:     Size  Location     Type
   542 ;;		None
   543 ;; Return value:  Size  Location     Type
   544 ;;                  1    wreg      void 
   545 ;; Registers used:
   546 ;;		wreg, status,2, status,0, btemp+1, pclath, cstack
   547 ;; Tracked objects:
   548 ;;		On entry : B00/0
   549 ;;		On exit  : 0/0
   550 ;;		Unchanged: 0/0
   551 ;; Data sizes:     COMMON   BANK0   BANK1   BANK3   BANK2
   552 ;;      Params:         0       0       0       0       0
   553 ;;      Locals:         0       0       0       0       0
   554 ;;      Temps:          0       0       0       0       0
   555 ;;      Totals:         0       0       0       0       0
   556 ;;Total ram usage:        0 bytes
   557 ;; Hardware stack levels required when called: 4
   558 ;; This function calls:
   559 ;;		_LCD
   560 ;;		_adc
   561 ;;		_voltage
   562 ;; This function is called by:
   563 ;;		Startup code after reset
   564 ;; This function uses a non-reentrant model
   565 ;;
   566                           
   567                           
   568                           ;psect for function _main
   569  0DF9                     _main:
   570  0DF9                     l1712:	
   571                           ;incstack = 0
   572                           ; Regs used in _main: [wreg+status,2+status,0+btemp+1+pclath+cstack]
   573                           
   574                           
   575                           ;ADC TO FIND VOLTAGE.c: 19:     TRISA=0X01;
   576  0DF9  3001               	movlw	1
   577  0DFA  1683               	bsf	3,5	;RP0=1, select bank1
   578  0DFB  1303               	bcf	3,6	;RP1=0, select bank1
   579  0DFC  0085               	movwf	5	;volatile
   580  0DFD                     l1714:
   581                           
   582                           ;ADC TO FIND VOLTAGE.c: 20:     PORTA=0X00;
   583  0DFD  1283               	bcf	3,5	;RP0=0, select bank0
   584  0DFE  1303               	bcf	3,6	;RP1=0, select bank0
   585  0DFF  0185               	clrf	5	;volatile
   586  0E00                     l1716:
   587                           
   588                           ;ADC TO FIND VOLTAGE.c: 21:     TRISD=0X00;
   589  0E00  1683               	bsf	3,5	;RP0=1, select bank1
   590  0E01  1303               	bcf	3,6	;RP1=0, select bank1
   591  0E02  0188               	clrf	8	;volatile
   592  0E03                     l1718:
   593                           
   594                           ;ADC TO FIND VOLTAGE.c: 22:     PORTD=0X00;
   595  0E03  1283               	bcf	3,5	;RP0=0, select bank0
   596  0E04  1303               	bcf	3,6	;RP1=0, select bank0
   597  0E05  0188               	clrf	8	;volatile
   598  0E06                     l1720:
   599                           
   600                           ;ADC TO FIND VOLTAGE.c: 23:     TRISE=0X00;
   601  0E06  1683               	bsf	3,5	;RP0=1, select bank1
   602  0E07  1303               	bcf	3,6	;RP1=0, select bank1
   603  0E08  0189               	clrf	9	;volatile
   604  0E09                     l1722:
   605                           
   606                           ;ADC TO FIND VOLTAGE.c: 24:     PORTE=0X00;
   607  0E09  1283               	bcf	3,5	;RP0=0, select bank0
   608  0E0A  1303               	bcf	3,6	;RP1=0, select bank0
   609  0E0B  0189               	clrf	9	;volatile
   610  0E0C                     l1724:
   611                           
   612                           ;ADC TO FIND VOLTAGE.c: 25:     ANSEL=0X00;
   613  0E0C  1683               	bsf	3,5	;RP0=1, select bank3
   614  0E0D  1703               	bsf	3,6	;RP1=1, select bank3
   615  0E0E  0188               	clrf	8	;volatile
   616  0E0F                     l1726:
   617                           
   618                           ;ADC TO FIND VOLTAGE.c: 26:     ANSELH=0X00;
   619  0E0F  0189               	clrf	9	;volatile
   620  0E10                     l1728:
   621                           
   622                           ;ADC TO FIND VOLTAGE.c: 27:     ADCON1=0x80;
   623  0E10  3080               	movlw	128
   624  0E11  1683               	bsf	3,5	;RP0=1, select bank1
   625  0E12  1303               	bcf	3,6	;RP1=0, select bank1
   626  0E13  009F               	movwf	31	;volatile
   627  0E14                     l1730:
   628                           
   629                           ;ADC TO FIND VOLTAGE.c: 28:     LCD(0X38,0);
   630  0E14  3038               	movlw	56
   631  0E15  00F1               	movwf	LCD@g
   632  0E16  3000               	movlw	0
   633  0E17  00F2               	movwf	LCD@g+1
   634  0E18  3000               	movlw	0
   635  0E19  00F3               	movwf	LCD@h
   636  0E1A  00F4               	movwf	LCD@h+1
   637  0E1B  120A  118A  2013  120A  158A  	fcall	_LCD
   638  0E20                     l1732:
   639                           
   640                           ;ADC TO FIND VOLTAGE.c: 29:     LCD(0X0E,0);
   641  0E20  300E               	movlw	14
   642  0E21  00F1               	movwf	LCD@g
   643  0E22  3000               	movlw	0
   644  0E23  00F2               	movwf	LCD@g+1
   645  0E24  3000               	movlw	0
   646  0E25  00F3               	movwf	LCD@h
   647  0E26  00F4               	movwf	LCD@h+1
   648  0E27  120A  118A  2013  120A  158A  	fcall	_LCD
   649  0E2C                     l1734:
   650                           
   651                           ;ADC TO FIND VOLTAGE.c: 32:     {;ADC TO FIND VOLTAGE.c: 33:         adc();
   652  0E2C  120A  158A  2778  120A  158A  	fcall	_adc
   653  0E31                     l1736:
   654                           
   655                           ;ADC TO FIND VOLTAGE.c: 34:         voltage();
   656  0E31  120A  118A  2192  120A  158A  	fcall	_voltage
   657  0E36  2E2C               	goto	l1734
   658  0E37  120A  118A  2800   	ljmp	start
   659  0E3A                     __end_of_main:
   660                           
   661                           	psect	text1
   662  0192                     __ptext1:	
   663 ;; *************** function _voltage *****************
   664 ;; Defined at:
   665 ;;		line 91 in file "ADC TO FIND VOLTAGE.c"
   666 ;; Parameters:    Size  Location     Type
   667 ;;		None
   668 ;; Auto vars:     Size  Location     Type
   669 ;;  x               4   52[BANK0 ] float 
   670 ;;  d               2   62[BANK0 ] int 
   671 ;;  c               2   60[BANK0 ] int 
   672 ;;  b               2   58[BANK0 ] int 
   673 ;;  a               2   56[BANK0 ] int 
   674 ;; Return value:  Size  Location     Type
   675 ;;                  1    wreg      void 
   676 ;; Registers used:
   677 ;;		wreg, status,2, status,0, btemp+1, pclath, cstack
   678 ;; Tracked objects:
   679 ;;		On entry : 0/0
   680 ;;		On exit  : 0/0
   681 ;;		Unchanged: 0/0
   682 ;; Data sizes:     COMMON   BANK0   BANK1   BANK3   BANK2
   683 ;;      Params:         0       0       0       0       0
   684 ;;      Locals:         0      12       0       0       0
   685 ;;      Temps:          0       0       0       0       0
   686 ;;      Totals:         0      12       0       0       0
   687 ;;Total ram usage:       12 bytes
   688 ;; Hardware stack levels used: 1
   689 ;; Hardware stack levels required when called: 2
   690 ;; This function calls:
   691 ;;		_LCD
   692 ;;		___awdiv
   693 ;;		___awmod
   694 ;;		___fldiv
   695 ;;		___flmul
   696 ;;		___fltol
   697 ;;		___xxtofl
   698 ;; This function is called by:
   699 ;;		_main
   700 ;; This function uses a non-reentrant model
   701 ;;
   702                           
   703                           
   704                           ;psect for function _voltage
   705  0192                     _voltage:
   706  0192                     l1706:	
   707                           ;incstack = 0
   708                           ; Regs used in _voltage: [wreg+status,2+status,0+btemp+1+pclath+cstack]
   709                           
   710                           
   711                           ;ADC TO FIND VOLTAGE.c: 93:     LCD(0Xc0,0);
   712  0192  30C0               	movlw	192
   713  0193  00F1               	movwf	LCD@g
   714  0194  3000               	movlw	0
   715  0195  00F2               	movwf	LCD@g+1
   716  0196  3000               	movlw	0
   717  0197  00F3               	movwf	LCD@h
   718  0198  00F4               	movwf	LCD@h+1
   719  0199  120A  118A  2013  120A  118A  	fcall	_LCD
   720  019E                     l1708:
   721                           
   722                           ;ADC TO FIND VOLTAGE.c: 94:     int a,b,c,d;;ADC TO FIND VOLTAGE.c: 95:     float x;;ADC
      +                           TO FIND VOLTAGE.c: 96:     x=(DV*5.0)/1023.0;
   723  019E  3044               	movlw	68
   724  019F  1283               	bcf	3,5	;RP0=0, select bank0
   725  01A0  1303               	bcf	3,6	;RP1=0, select bank0
   726  01A1  00BD               	movwf	___fldiv@a+3
   727  01A2  307F               	movlw	127
   728  01A3  00BC               	movwf	___fldiv@a+2
   729  01A4  30C0               	movlw	192
   730  01A5  00BB               	movwf	___fldiv@a+1
   731  01A6  3000               	movlw	0
   732  01A7  00BA               	movwf	___fldiv@a
   733  01A8  3040               	movlw	64
   734  01A9  00A3               	movwf	___flmul@b+3
   735  01AA  30A0               	movlw	160
   736  01AB  00A2               	movwf	___flmul@b+2
   737  01AC  3000               	movlw	0
   738  01AD  00A1               	movwf	___flmul@b+1
   739  01AE  3000               	movlw	0
   740  01AF  00A0               	movwf	___flmul@b
   741  01B0  0860               	movf	_DV,w
   742  01B1  00F0               	movwf	___xxtofl@val
   743  01B2  0861               	movf	_DV+1,w
   744  01B3  00F1               	movwf	___xxtofl@val+1
   745  01B4  3000               	movlw	0
   746  01B5  1BF1               	btfsc	___xxtofl@val+1,7
   747  01B6  30FF               	movlw	255
   748  01B7  00F2               	movwf	___xxtofl@val+2
   749  01B8  00F3               	movwf	___xxtofl@val+3
   750  01B9  3001               	movlw	1
   751  01BA  120A  118A  20D8  120A  118A  	fcall	___xxtofl
   752  01BF  0873               	movf	?___xxtofl+3,w
   753  01C0  1283               	bcf	3,5	;RP0=0, select bank0
   754  01C1  1303               	bcf	3,6	;RP1=0, select bank0
   755  01C2  00A7               	movwf	___flmul@a+3
   756  01C3  0872               	movf	?___xxtofl+2,w
   757  01C4  00A6               	movwf	___flmul@a+2
   758  01C5  0871               	movf	?___xxtofl+1,w
   759  01C6  00A5               	movwf	___flmul@a+1
   760  01C7  0870               	movf	?___xxtofl,w
   761  01C8  00A4               	movwf	___flmul@a
   762  01C9  120A  118A  2493  120A  118A  	fcall	___flmul
   763  01CE  1283               	bcf	3,5	;RP0=0, select bank0
   764  01CF  1303               	bcf	3,6	;RP1=0, select bank0
   765  01D0  0823               	movf	?___flmul+3,w
   766  01D1  00C1               	movwf	___fldiv@b+3
   767  01D2  0822               	movf	?___flmul+2,w
   768  01D3  00C0               	movwf	___fldiv@b+2
   769  01D4  0821               	movf	?___flmul+1,w
   770  01D5  00BF               	movwf	___fldiv@b+1
   771  01D6  0820               	movf	?___flmul,w
   772  01D7  00BE               	movwf	___fldiv@b
   773  01D8  120A  118A  22B6  120A  118A  	fcall	___fldiv
   774  01DD  1283               	bcf	3,5	;RP0=0, select bank0
   775  01DE  1303               	bcf	3,6	;RP1=0, select bank0
   776  01DF  083D               	movf	?___fldiv+3,w
   777  01E0  00D7               	movwf	voltage@x+3
   778  01E1  083C               	movf	?___fldiv+2,w
   779  01E2  00D6               	movwf	voltage@x+2
   780  01E3  083B               	movf	?___fldiv+1,w
   781  01E4  00D5               	movwf	voltage@x+1
   782  01E5  083A               	movf	?___fldiv,w
   783  01E6  00D4               	movwf	voltage@x
   784  01E7                     l1710:
   785                           
   786                           ;ADC TO FIND VOLTAGE.c: 97:     d=x*100;
   787  01E7  0857               	movf	voltage@x+3,w
   788  01E8  00A7               	movwf	___flmul@a+3
   789  01E9  0856               	movf	voltage@x+2,w
   790  01EA  00A6               	movwf	___flmul@a+2
   791  01EB  0855               	movf	voltage@x+1,w
   792  01EC  00A5               	movwf	___flmul@a+1
   793  01ED  0854               	movf	voltage@x,w
   794  01EE  00A4               	movwf	___flmul@a
   795  01EF  3042               	movlw	66
   796  01F0  00A3               	movwf	___flmul@b+3
   797  01F1  30C8               	movlw	200
   798  01F2  00A2               	movwf	___flmul@b+2
   799  01F3  3000               	movlw	0
   800  01F4  00A1               	movwf	___flmul@b+1
   801  01F5  3000               	movlw	0
   802  01F6  00A0               	movwf	___flmul@b
   803  01F7  120A  118A  2493  120A  118A  	fcall	___flmul
   804  01FC  1283               	bcf	3,5	;RP0=0, select bank0
   805  01FD  1303               	bcf	3,6	;RP1=0, select bank0
   806  01FE  0823               	movf	?___flmul+3,w
   807  01FF  00BD               	movwf	___fltol@f1+3
   808  0200  0822               	movf	?___flmul+2,w
   809  0201  00BC               	movwf	___fltol@f1+2
   810  0202  0821               	movf	?___flmul+1,w
   811  0203  00BB               	movwf	___fltol@f1+1
   812  0204  0820               	movf	?___flmul,w
   813  0205  00BA               	movwf	___fltol@f1
   814  0206  120A  158A  26FC  120A  118A  	fcall	___fltol
   815  020B  1283               	bcf	3,5	;RP0=0, select bank0
   816  020C  1303               	bcf	3,6	;RP1=0, select bank0
   817  020D  083B               	movf	?___fltol+1,w
   818  020E  00DF               	movwf	voltage@d+1
   819  020F  083A               	movf	?___fltol,w
   820  0210  00DE               	movwf	voltage@d
   821                           
   822                           ;ADC TO FIND VOLTAGE.c: 98:     a=d/100;
   823  0211  3064               	movlw	100
   824  0212  00F7               	movwf	___awdiv@divisor
   825  0213  3000               	movlw	0
   826  0214  00F8               	movwf	___awdiv@divisor+1
   827  0215  085F               	movf	voltage@d+1,w
   828  0216  00FA               	movwf	___awdiv@dividend+1
   829  0217  085E               	movf	voltage@d,w
   830  0218  00F9               	movwf	___awdiv@dividend
   831  0219  120A  158A  2693  120A  118A  	fcall	___awdiv
   832  021E  0878               	movf	?___awdiv+1,w
   833  021F  1283               	bcf	3,5	;RP0=0, select bank0
   834  0220  1303               	bcf	3,6	;RP1=0, select bank0
   835  0221  00D9               	movwf	voltage@a+1
   836  0222  0877               	movf	?___awdiv,w
   837  0223  00D8               	movwf	voltage@a
   838                           
   839                           ;ADC TO FIND VOLTAGE.c: 99:     b=(d%100)/10;
   840  0224  300A               	movlw	10
   841  0225  00F7               	movwf	___awdiv@divisor
   842  0226  3000               	movlw	0
   843  0227  00F8               	movwf	___awdiv@divisor+1
   844  0228  085F               	movf	voltage@d+1,w
   845  0229  00F3               	movwf	___awmod@dividend+1
   846  022A  085E               	movf	voltage@d,w
   847  022B  00F2               	movwf	___awmod@dividend
   848  022C  3064               	movlw	100
   849  022D  00F0               	movwf	___awmod@divisor
   850  022E  3000               	movlw	0
   851  022F  00F1               	movwf	___awmod@divisor+1
   852  0230  120A  158A  263A  120A  118A  	fcall	___awmod
   853  0235  0871               	movf	?___awmod+1,w
   854  0236  00FA               	movwf	___awdiv@dividend+1
   855  0237  0870               	movf	?___awmod,w
   856  0238  00F9               	movwf	___awdiv@dividend
   857  0239  120A  158A  2693  120A  118A  	fcall	___awdiv
   858  023E  0878               	movf	?___awdiv+1,w
   859  023F  1283               	bcf	3,5	;RP0=0, select bank0
   860  0240  1303               	bcf	3,6	;RP1=0, select bank0
   861  0241  00DB               	movwf	voltage@b+1
   862  0242  0877               	movf	?___awdiv,w
   863  0243  00DA               	movwf	voltage@b
   864                           
   865                           ;ADC TO FIND VOLTAGE.c: 100:     c=d%10;
   866  0244  300A               	movlw	10
   867  0245  00F0               	movwf	___awmod@divisor
   868  0246  3000               	movlw	0
   869  0247  00F1               	movwf	___awmod@divisor+1
   870  0248  085F               	movf	voltage@d+1,w
   871  0249  00F3               	movwf	___awmod@dividend+1
   872  024A  085E               	movf	voltage@d,w
   873  024B  00F2               	movwf	___awmod@dividend
   874  024C  120A  158A  263A  120A  118A  	fcall	___awmod
   875  0251  0871               	movf	?___awmod+1,w
   876  0252  1283               	bcf	3,5	;RP0=0, select bank0
   877  0253  1303               	bcf	3,6	;RP1=0, select bank0
   878  0254  00DD               	movwf	voltage@c+1
   879  0255  0870               	movf	?___awmod,w
   880  0256  00DC               	movwf	voltage@c
   881                           
   882                           ;ADC TO FIND VOLTAGE.c: 101:     LCD(0x30+a,1);
   883  0257  0858               	movf	voltage@a,w
   884  0258  3E30               	addlw	48
   885  0259  00F1               	movwf	LCD@g
   886  025A  0859               	movf	voltage@a+1,w
   887  025B  1803               	skipnc
   888  025C  3E01               	addlw	1
   889  025D  3E00               	addlw	0
   890  025E  00F2               	movwf	LCD@g+1
   891  025F  3001               	movlw	1
   892  0260  00F3               	movwf	LCD@h
   893  0261  3000               	movlw	0
   894  0262  00F4               	movwf	LCD@h+1
   895  0263  120A  118A  2013  120A  118A  	fcall	_LCD
   896                           
   897                           ;ADC TO FIND VOLTAGE.c: 102:     LCD(0x2e,1);
   898  0268  302E               	movlw	46
   899  0269  00F1               	movwf	LCD@g
   900  026A  3000               	movlw	0
   901  026B  00F2               	movwf	LCD@g+1
   902  026C  3001               	movlw	1
   903  026D  00F3               	movwf	LCD@h
   904  026E  3000               	movlw	0
   905  026F  00F4               	movwf	LCD@h+1
   906  0270  120A  118A  2013  120A  118A  	fcall	_LCD
   907                           
   908                           ;ADC TO FIND VOLTAGE.c: 103:     LCD(0x30+b,1);
   909  0275  1283               	bcf	3,5	;RP0=0, select bank0
   910  0276  1303               	bcf	3,6	;RP1=0, select bank0
   911  0277  085A               	movf	voltage@b,w
   912  0278  3E30               	addlw	48
   913  0279  00F1               	movwf	LCD@g
   914  027A  085B               	movf	voltage@b+1,w
   915  027B  1803               	skipnc
   916  027C  3E01               	addlw	1
   917  027D  3E00               	addlw	0
   918  027E  00F2               	movwf	LCD@g+1
   919  027F  3001               	movlw	1
   920  0280  00F3               	movwf	LCD@h
   921  0281  3000               	movlw	0
   922  0282  00F4               	movwf	LCD@h+1
   923  0283  120A  118A  2013  120A  118A  	fcall	_LCD
   924                           
   925                           ;ADC TO FIND VOLTAGE.c: 104:     LCD(0x30+c,1);
   926  0288  1283               	bcf	3,5	;RP0=0, select bank0
   927  0289  1303               	bcf	3,6	;RP1=0, select bank0
   928  028A  085C               	movf	voltage@c,w
   929  028B  3E30               	addlw	48
   930  028C  00F1               	movwf	LCD@g
   931  028D  085D               	movf	voltage@c+1,w
   932  028E  1803               	skipnc
   933  028F  3E01               	addlw	1
   934  0290  3E00               	addlw	0
   935  0291  00F2               	movwf	LCD@g+1
   936  0292  3001               	movlw	1
   937  0293  00F3               	movwf	LCD@h
   938  0294  3000               	movlw	0
   939  0295  00F4               	movwf	LCD@h+1
   940  0296  120A  118A  2013  120A  118A  	fcall	_LCD
   941                           
   942                           ;ADC TO FIND VOLTAGE.c: 105:     LCD(0x20,1);
   943  029B  3020               	movlw	32
   944  029C  00F1               	movwf	LCD@g
   945  029D  3000               	movlw	0
   946  029E  00F2               	movwf	LCD@g+1
   947  029F  3001               	movlw	1
   948  02A0  00F3               	movwf	LCD@h
   949  02A1  3000               	movlw	0
   950  02A2  00F4               	movwf	LCD@h+1
   951  02A3  120A  118A  2013  120A  118A  	fcall	_LCD
   952                           
   953                           ;ADC TO FIND VOLTAGE.c: 106:     LCD(0x56,1);
   954  02A8  3056               	movlw	86
   955  02A9  00F1               	movwf	LCD@g
   956  02AA  3000               	movlw	0
   957  02AB  00F2               	movwf	LCD@g+1
   958  02AC  3001               	movlw	1
   959  02AD  00F3               	movwf	LCD@h
   960  02AE  3000               	movlw	0
   961  02AF  00F4               	movwf	LCD@h+1
   962  02B0  120A  118A  2013  120A  118A  	fcall	_LCD
   963  02B5                     l74:
   964  02B5  0008               	return
   965  02B6                     __end_of_voltage:
   966                           
   967                           	psect	text2
   968  00D8                     __ptext2:	
   969 ;; *************** function ___xxtofl *****************
   970 ;; Defined at:
   971 ;;		line 10 in file "C:\Program Files\Microchip\xc8\v2.32\pic\sources\c90\common\xxtofl.c"
   972 ;; Parameters:    Size  Location     Type
   973 ;;  sign            1    wreg     unsigned char 
   974 ;;  val             4    0[COMMON] long 
   975 ;; Auto vars:     Size  Location     Type
   976 ;;  sign            1    8[COMMON] unsigned char 
   977 ;;  arg             4   10[COMMON] unsigned long 
   978 ;;  exp             1    9[COMMON] unsigned char 
   979 ;; Return value:  Size  Location     Type
   980 ;;                  4    0[COMMON] unsigned char 
   981 ;; Registers used:
   982 ;;		wreg, status,2, status,0
   983 ;; Tracked objects:
   984 ;;		On entry : 0/0
   985 ;;		On exit  : 0/0
   986 ;;		Unchanged: 0/0
   987 ;; Data sizes:     COMMON   BANK0   BANK1   BANK3   BANK2
   988 ;;      Params:         4       0       0       0       0
   989 ;;      Locals:         6       0       0       0       0
   990 ;;      Temps:          4       0       0       0       0
   991 ;;      Totals:        14       0       0       0       0
   992 ;;Total ram usage:       14 bytes
   993 ;; Hardware stack levels used: 1
   994 ;; This function calls:
   995 ;;		Nothing
   996 ;; This function is called by:
   997 ;;		_voltage
   998 ;; This function uses a non-reentrant model
   999 ;;
  1000                           
  1001                           
  1002                           ;psect for function ___xxtofl
  1003  00D8                     ___xxtofl:
  1004                           
  1005                           ;incstack = 0
  1006                           ; Regs used in ___xxtofl: [wreg+status,2+status,0]
  1007                           ;___xxtofl@sign stored from wreg
  1008  00D8  00F8               	movwf	___xxtofl@sign
  1009  00D9                     l1630:
  1010  00D9  0878               	movf	___xxtofl@sign,w
  1011  00DA  1903               	btfsc	3,2
  1012  00DB  28DD               	goto	u2201
  1013  00DC  28DE               	goto	u2200
  1014  00DD                     u2201:
  1015  00DD  28F2               	goto	l1636
  1016  00DE                     u2200:
  1017  00DE                     l1632:
  1018  00DE  1FF3               	btfss	___xxtofl@val+3,7
  1019  00DF  28E1               	goto	u2211
  1020  00E0  28E2               	goto	u2210
  1021  00E1                     u2211:
  1022  00E1  28F2               	goto	l1636
  1023  00E2                     u2210:
  1024  00E2                     l1634:
  1025  00E2  0970               	comf	___xxtofl@val,w
  1026  00E3  00FA               	movwf	___xxtofl@arg
  1027  00E4  0971               	comf	___xxtofl@val+1,w
  1028  00E5  00FB               	movwf	___xxtofl@arg+1
  1029  00E6  0972               	comf	___xxtofl@val+2,w
  1030  00E7  00FC               	movwf	___xxtofl@arg+2
  1031  00E8  0973               	comf	___xxtofl@val+3,w
  1032  00E9  00FD               	movwf	___xxtofl@arg+3
  1033  00EA  0AFA               	incf	___xxtofl@arg,f
  1034  00EB  1903               	skipnz
  1035  00EC  0AFB               	incf	___xxtofl@arg+1,f
  1036  00ED  1903               	skipnz
  1037  00EE  0AFC               	incf	___xxtofl@arg+2,f
  1038  00EF  1903               	skipnz
  1039  00F0  0AFD               	incf	___xxtofl@arg+3,f
  1040  00F1  28FA               	goto	l593
  1041  00F2                     l1636:
  1042  00F2  0873               	movf	___xxtofl@val+3,w
  1043  00F3  00FD               	movwf	___xxtofl@arg+3
  1044  00F4  0872               	movf	___xxtofl@val+2,w
  1045  00F5  00FC               	movwf	___xxtofl@arg+2
  1046  00F6  0871               	movf	___xxtofl@val+1,w
  1047  00F7  00FB               	movwf	___xxtofl@arg+1
  1048  00F8  0870               	movf	___xxtofl@val,w
  1049  00F9  00FA               	movwf	___xxtofl@arg
  1050  00FA                     l593:
  1051  00FA  0873               	movf	___xxtofl@val+3,w
  1052  00FB  0472               	iorwf	___xxtofl@val+2,w
  1053  00FC  0471               	iorwf	___xxtofl@val+1,w
  1054  00FD  0470               	iorwf	___xxtofl@val,w
  1055  00FE  1D03               	skipz
  1056  00FF  2901               	goto	u2221
  1057  0100  2902               	goto	u2220
  1058  0101                     u2221:
  1059  0101  290B               	goto	l1642
  1060  0102                     u2220:
  1061  0102                     l1638:
  1062  0102  3000               	movlw	0
  1063  0103  00F3               	movwf	?___xxtofl+3
  1064  0104  3000               	movlw	0
  1065  0105  00F2               	movwf	?___xxtofl+2
  1066  0106  3000               	movlw	0
  1067  0107  00F1               	movwf	?___xxtofl+1
  1068  0108  3000               	movlw	0
  1069  0109  00F0               	movwf	?___xxtofl
  1070  010A  2991               	goto	l595
  1071  010B                     l1642:
  1072  010B  3096               	movlw	150
  1073  010C  00F4               	movwf	??___xxtofl
  1074  010D  0874               	movf	??___xxtofl,w
  1075  010E  00F9               	movwf	___xxtofl@exp
  1076  010F  291D               	goto	l1646
  1077  0110                     l1644:
  1078  0110  3001               	movlw	1
  1079  0111  00F4               	movwf	??___xxtofl
  1080  0112  0874               	movf	??___xxtofl,w
  1081  0113  07F9               	addwf	___xxtofl@exp,f
  1082  0114  3001               	movlw	1
  1083  0115                     u2235:
  1084  0115  1003               	clrc
  1085  0116  0CFD               	rrf	___xxtofl@arg+3,f
  1086  0117  0CFC               	rrf	___xxtofl@arg+2,f
  1087  0118  0CFB               	rrf	___xxtofl@arg+1,f
  1088  0119  0CFA               	rrf	___xxtofl@arg,f
  1089  011A  3EFF               	addlw	-1
  1090  011B  1D03               	skipz
  1091  011C  2915               	goto	u2235
  1092  011D                     l1646:
  1093  011D  30FE               	movlw	254
  1094  011E  057D               	andwf	___xxtofl@arg+3,w
  1095  011F  1D03               	btfss	3,2
  1096  0120  2922               	goto	u2241
  1097  0121  2923               	goto	u2240
  1098  0122                     u2241:
  1099  0122  2910               	goto	l1644
  1100  0123                     u2240:
  1101  0123  293F               	goto	l599
  1102  0124                     l1648:
  1103  0124  3001               	movlw	1
  1104  0125  00F4               	movwf	??___xxtofl
  1105  0126  0874               	movf	??___xxtofl,w
  1106  0127  07F9               	addwf	___xxtofl@exp,f
  1107  0128                     l1650:
  1108  0128  3001               	movlw	1
  1109  0129  07FA               	addwf	___xxtofl@arg,f
  1110  012A  3000               	movlw	0
  1111  012B  1803               	skipnc
  1112  012C  3001               	movlw	1
  1113  012D  07FB               	addwf	___xxtofl@arg+1,f
  1114  012E  3000               	movlw	0
  1115  012F  1803               	skipnc
  1116  0130  3001               	movlw	1
  1117  0131  07FC               	addwf	___xxtofl@arg+2,f
  1118  0132  3000               	movlw	0
  1119  0133  1803               	skipnc
  1120  0134  3001               	movlw	1
  1121  0135  07FD               	addwf	___xxtofl@arg+3,f
  1122  0136                     l1652:
  1123  0136  3001               	movlw	1
  1124  0137                     u2255:
  1125  0137  1003               	clrc
  1126  0138  0CFD               	rrf	___xxtofl@arg+3,f
  1127  0139  0CFC               	rrf	___xxtofl@arg+2,f
  1128  013A  0CFB               	rrf	___xxtofl@arg+1,f
  1129  013B  0CFA               	rrf	___xxtofl@arg,f
  1130  013C  3EFF               	addlw	-1
  1131  013D  1D03               	skipz
  1132  013E  2937               	goto	u2255
  1133  013F                     l599:
  1134  013F  30FF               	movlw	255
  1135  0140  057D               	andwf	___xxtofl@arg+3,w
  1136  0141  1D03               	btfss	3,2
  1137  0142  2944               	goto	u2261
  1138  0143  2945               	goto	u2260
  1139  0144                     u2261:
  1140  0144  2924               	goto	l1648
  1141  0145                     u2260:
  1142  0145  2951               	goto	l1656
  1143  0146                     l1654:
  1144  0146  3001               	movlw	1
  1145  0147  02F9               	subwf	___xxtofl@exp,f
  1146  0148  3001               	movlw	1
  1147  0149  00F4               	movwf	??___xxtofl
  1148  014A                     u2275:
  1149  014A  1003               	clrc
  1150  014B  0DFA               	rlf	___xxtofl@arg,f
  1151  014C  0DFB               	rlf	___xxtofl@arg+1,f
  1152  014D  0DFC               	rlf	___xxtofl@arg+2,f
  1153  014E  0DFD               	rlf	___xxtofl@arg+3,f
  1154  014F  0BF4               	decfsz	??___xxtofl,f
  1155  0150  294A               	goto	u2275
  1156  0151                     l1656:
  1157  0151  1BFC               	btfsc	___xxtofl@arg+2,7
  1158  0152  2954               	goto	u2281
  1159  0153  2955               	goto	u2280
  1160  0154                     u2281:
  1161  0154  295B               	goto	l606
  1162  0155                     u2280:
  1163  0155                     l1658:
  1164  0155  3002               	movlw	2
  1165  0156  0279               	subwf	___xxtofl@exp,w
  1166  0157  1803               	skipnc
  1167  0158  295A               	goto	u2291
  1168  0159  295B               	goto	u2290
  1169  015A                     u2291:
  1170  015A  2946               	goto	l1654
  1171  015B                     u2290:
  1172  015B                     l606:
  1173  015B  1879               	btfsc	___xxtofl@exp,0
  1174  015C  295E               	goto	u2301
  1175  015D  295F               	goto	u2300
  1176  015E                     u2301:
  1177  015E  2967               	goto	l607
  1178  015F                     u2300:
  1179  015F                     l1660:
  1180  015F  30FF               	movlw	255
  1181  0160  05FA               	andwf	___xxtofl@arg,f
  1182  0161  30FF               	movlw	255
  1183  0162  05FB               	andwf	___xxtofl@arg+1,f
  1184  0163  307F               	movlw	127
  1185  0164  05FC               	andwf	___xxtofl@arg+2,f
  1186  0165  30FF               	movlw	255
  1187  0166  05FD               	andwf	___xxtofl@arg+3,f
  1188  0167                     l607:
  1189  0167  1003               	clrc
  1190  0168  0CF9               	rrf	___xxtofl@exp,f
  1191  0169                     l1662:
  1192  0169  0879               	movf	___xxtofl@exp,w
  1193  016A  00F4               	movwf	??___xxtofl
  1194  016B  01F5               	clrf	??___xxtofl+1
  1195  016C  01F6               	clrf	??___xxtofl+2
  1196  016D  01F7               	clrf	??___xxtofl+3
  1197  016E  3018               	movlw	24
  1198  016F                     u2315:
  1199  016F  1003               	clrc
  1200  0170  0DF4               	rlf	??___xxtofl,f
  1201  0171  0DF5               	rlf	??___xxtofl+1,f
  1202  0172  0DF6               	rlf	??___xxtofl+2,f
  1203  0173  0DF7               	rlf	??___xxtofl+3,f
  1204  0174                     u2310:
  1205  0174  3EFF               	addlw	-1
  1206  0175  1D03               	skipz
  1207  0176  296F               	goto	u2315
  1208  0177  0874               	movf	??___xxtofl,w
  1209  0178  04FA               	iorwf	___xxtofl@arg,f
  1210  0179  0875               	movf	??___xxtofl+1,w
  1211  017A  04FB               	iorwf	___xxtofl@arg+1,f
  1212  017B  0876               	movf	??___xxtofl+2,w
  1213  017C  04FC               	iorwf	___xxtofl@arg+2,f
  1214  017D  0877               	movf	??___xxtofl+3,w
  1215  017E  04FD               	iorwf	___xxtofl@arg+3,f
  1216  017F                     l1664:
  1217  017F  0878               	movf	___xxtofl@sign,w
  1218  0180  1903               	btfsc	3,2
  1219  0181  2983               	goto	u2321
  1220  0182  2984               	goto	u2320
  1221  0183                     u2321:
  1222  0183  2989               	goto	l1670
  1223  0184                     u2320:
  1224  0184                     l1666:
  1225  0184  1FF3               	btfss	___xxtofl@val+3,7
  1226  0185  2987               	goto	u2331
  1227  0186  2988               	goto	u2330
  1228  0187                     u2331:
  1229  0187  2989               	goto	l1670
  1230  0188                     u2330:
  1231  0188                     l1668:
  1232  0188  17FD               	bsf	___xxtofl@arg+3,7
  1233  0189                     l1670:
  1234  0189  087D               	movf	___xxtofl@arg+3,w
  1235  018A  00F3               	movwf	?___xxtofl+3
  1236  018B  087C               	movf	___xxtofl@arg+2,w
  1237  018C  00F2               	movwf	?___xxtofl+2
  1238  018D  087B               	movf	___xxtofl@arg+1,w
  1239  018E  00F1               	movwf	?___xxtofl+1
  1240  018F  087A               	movf	___xxtofl@arg,w
  1241  0190  00F0               	movwf	?___xxtofl
  1242  0191                     l595:
  1243  0191  0008               	return
  1244  0192                     __end_of___xxtofl:
  1245                           
  1246                           	psect	text3
  1247  0EFC                     __ptext3:	
  1248 ;; *************** function ___fltol *****************
  1249 ;; Defined at:
  1250 ;;		line 43 in file "C:\Program Files\Microchip\xc8\v2.32\pic\sources\c90\common\fltol.c"
  1251 ;; Parameters:    Size  Location     Type
  1252 ;;  f1              4   26[BANK0 ] unsigned char 
  1253 ;; Auto vars:     Size  Location     Type
  1254 ;;  exp1            1   36[BANK0 ] unsigned char 
  1255 ;;  sign1           1   35[BANK0 ] unsigned char 
  1256 ;; Return value:  Size  Location     Type
  1257 ;;                  4   26[BANK0 ] long 
  1258 ;; Registers used:
  1259 ;;		wreg, status,2, status,0
  1260 ;; Tracked objects:
  1261 ;;		On entry : 0/0
  1262 ;;		On exit  : 0/0
  1263 ;;		Unchanged: 0/0
  1264 ;; Data sizes:     COMMON   BANK0   BANK1   BANK3   BANK2
  1265 ;;      Params:         0       4       0       0       0
  1266 ;;      Locals:         0       2       0       0       0
  1267 ;;      Temps:          0       5       0       0       0
  1268 ;;      Totals:         0      11       0       0       0
  1269 ;;Total ram usage:       11 bytes
  1270 ;; Hardware stack levels used: 1
  1271 ;; This function calls:
  1272 ;;		Nothing
  1273 ;; This function is called by:
  1274 ;;		_voltage
  1275 ;; This function uses a non-reentrant model
  1276 ;;
  1277                           
  1278                           
  1279                           ;psect for function ___fltol
  1280  0EFC                     ___fltol:
  1281  0EFC                     l1312:	
  1282                           ;incstack = 0
  1283                           ; Regs used in ___fltol: [wreg+status,2+status,0]
  1284                           
  1285  0EFC  1003               	clrc
  1286  0EFD  1283               	bcf	3,5	;RP0=0, select bank0
  1287  0EFE  1303               	bcf	3,6	;RP1=0, select bank0
  1288  0EFF  0D3C               	rlf	___fltol@f1+2,w
  1289  0F00  0D3D               	rlf	___fltol@f1+3,w
  1290  0F01  00BE               	movwf	??___fltol
  1291  0F02  083E               	movf	??___fltol,w
  1292  0F03  00C4               	movwf	___fltol@exp1
  1293  0F04  0844               	movf	___fltol@exp1,w
  1294  0F05  1D03               	btfss	3,2
  1295  0F06  2F08               	goto	u1441
  1296  0F07  2F09               	goto	u1440
  1297  0F08                     u1441:
  1298  0F08  2F12               	goto	l1318
  1299  0F09                     u1440:
  1300  0F09                     l1314:
  1301  0F09  3000               	movlw	0
  1302  0F0A  00BD               	movwf	?___fltol+3
  1303  0F0B  3000               	movlw	0
  1304  0F0C  00BC               	movwf	?___fltol+2
  1305  0F0D  3000               	movlw	0
  1306  0F0E  00BB               	movwf	?___fltol+1
  1307  0F0F  3000               	movlw	0
  1308  0F10  00BA               	movwf	?___fltol
  1309  0F11  2F77               	goto	l346
  1310  0F12                     l1318:
  1311  0F12  083A               	movf	___fltol@f1,w
  1312  0F13  00BE               	movwf	??___fltol
  1313  0F14  083B               	movf	___fltol@f1+1,w
  1314  0F15  00BF               	movwf	??___fltol+1
  1315  0F16  083C               	movf	___fltol@f1+2,w
  1316  0F17  00C0               	movwf	??___fltol+2
  1317  0F18  083D               	movf	___fltol@f1+3,w
  1318  0F19  00C1               	movwf	??___fltol+3
  1319  0F1A  301F               	movlw	31
  1320  0F1B                     u1455:
  1321  0F1B  1003               	clrc
  1322  0F1C  0CC1               	rrf	??___fltol+3,f
  1323  0F1D  0CC0               	rrf	??___fltol+2,f
  1324  0F1E  0CBF               	rrf	??___fltol+1,f
  1325  0F1F  0CBE               	rrf	??___fltol,f
  1326  0F20                     u1450:
  1327  0F20  3EFF               	addlw	-1
  1328  0F21  1D03               	skipz
  1329  0F22  2F1B               	goto	u1455
  1330  0F23  083E               	movf	??___fltol,w
  1331  0F24  00C2               	movwf	??___fltol+4
  1332  0F25  0842               	movf	??___fltol+4,w
  1333  0F26  00C3               	movwf	___fltol@sign1
  1334  0F27                     l1320:
  1335  0F27  17BC               	bsf	___fltol@f1+2,7
  1336  0F28                     l1322:
  1337  0F28  30FF               	movlw	255
  1338  0F29  05BA               	andwf	___fltol@f1,f
  1339  0F2A  30FF               	movlw	255
  1340  0F2B  05BB               	andwf	___fltol@f1+1,f
  1341  0F2C  30FF               	movlw	255
  1342  0F2D  05BC               	andwf	___fltol@f1+2,f
  1343  0F2E  3000               	movlw	0
  1344  0F2F  05BD               	andwf	___fltol@f1+3,f
  1345  0F30                     l1324:
  1346  0F30  3096               	movlw	150
  1347  0F31  02C4               	subwf	___fltol@exp1,f
  1348  0F32                     l1326:
  1349  0F32  1FC4               	btfss	___fltol@exp1,7
  1350  0F33  2F35               	goto	u1461
  1351  0F34  2F36               	goto	u1460
  1352  0F35                     u1461:
  1353  0F35  2F50               	goto	l1336
  1354  0F36                     u1460:
  1355  0F36                     l1328:
  1356  0F36  0844               	movf	___fltol@exp1,w
  1357  0F37  3A80               	xorlw	128
  1358  0F38  3E97               	addlw	151
  1359  0F39  1803               	skipnc
  1360  0F3A  2F3C               	goto	u1471
  1361  0F3B  2F3D               	goto	u1470
  1362  0F3C                     u1471:
  1363  0F3C  2F3E               	goto	l1334
  1364  0F3D                     u1470:
  1365  0F3D  2F09               	goto	l1314
  1366  0F3E                     l1334:
  1367  0F3E  3001               	movlw	1
  1368  0F3F                     u1485:
  1369  0F3F  1003               	clrc
  1370  0F40  0CBD               	rrf	___fltol@f1+3,f
  1371  0F41  0CBC               	rrf	___fltol@f1+2,f
  1372  0F42  0CBB               	rrf	___fltol@f1+1,f
  1373  0F43  0CBA               	rrf	___fltol@f1,f
  1374  0F44  3EFF               	addlw	-1
  1375  0F45  1D03               	skipz
  1376  0F46  2F3F               	goto	u1485
  1377  0F47  3001               	movlw	1
  1378  0F48  00BE               	movwf	??___fltol
  1379  0F49  083E               	movf	??___fltol,w
  1380  0F4A  07C4               	addwf	___fltol@exp1,f
  1381  0F4B  1D03               	btfss	3,2
  1382  0F4C  2F4E               	goto	u1491
  1383  0F4D  2F4F               	goto	u1490
  1384  0F4E                     u1491:
  1385  0F4E  2F3E               	goto	l1334
  1386  0F4F                     u1490:
  1387  0F4F  2F67               	goto	l1344
  1388  0F50                     l1336:
  1389  0F50  3020               	movlw	32
  1390  0F51  0244               	subwf	___fltol@exp1,w
  1391  0F52  1C03               	skipc
  1392  0F53  2F55               	goto	u1501
  1393  0F54  2F56               	goto	u1500
  1394  0F55                     u1501:
  1395  0F55  2F62               	goto	l353
  1396  0F56                     u1500:
  1397  0F56  2F09               	goto	l1314
  1398  0F57                     l1342:
  1399  0F57  3001               	movlw	1
  1400  0F58  00BE               	movwf	??___fltol
  1401  0F59                     u1515:
  1402  0F59  1003               	clrc
  1403  0F5A  0DBA               	rlf	___fltol@f1,f
  1404  0F5B  0DBB               	rlf	___fltol@f1+1,f
  1405  0F5C  0DBC               	rlf	___fltol@f1+2,f
  1406  0F5D  0DBD               	rlf	___fltol@f1+3,f
  1407  0F5E  0BBE               	decfsz	??___fltol,f
  1408  0F5F  2F59               	goto	u1515
  1409  0F60  3001               	movlw	1
  1410  0F61  02C4               	subwf	___fltol@exp1,f
  1411  0F62                     l353:
  1412  0F62  0844               	movf	___fltol@exp1,w
  1413  0F63  1D03               	btfss	3,2
  1414  0F64  2F66               	goto	u1521
  1415  0F65  2F67               	goto	u1520
  1416  0F66                     u1521:
  1417  0F66  2F57               	goto	l1342
  1418  0F67                     u1520:
  1419  0F67                     l1344:
  1420  0F67  0843               	movf	___fltol@sign1,w
  1421  0F68  1903               	btfsc	3,2
  1422  0F69  2F6B               	goto	u1531
  1423  0F6A  2F6C               	goto	u1530
  1424  0F6B                     u1531:
  1425  0F6B  2F77               	goto	l356
  1426  0F6C                     u1530:
  1427  0F6C                     l1346:
  1428  0F6C  09BA               	comf	___fltol@f1,f
  1429  0F6D  09BB               	comf	___fltol@f1+1,f
  1430  0F6E  09BC               	comf	___fltol@f1+2,f
  1431  0F6F  09BD               	comf	___fltol@f1+3,f
  1432  0F70  0ABA               	incf	___fltol@f1,f
  1433  0F71  1903               	skipnz
  1434  0F72  0ABB               	incf	___fltol@f1+1,f
  1435  0F73  1903               	skipnz
  1436  0F74  0ABC               	incf	___fltol@f1+2,f
  1437  0F75  1903               	skipnz
  1438  0F76  0ABD               	incf	___fltol@f1+3,f
  1439  0F77                     l356:
  1440  0F77                     l346:
  1441  0F77  0008               	return
  1442  0F78                     __end_of___fltol:
  1443                           
  1444                           	psect	text4
  1445  0493                     __ptext4:	
  1446 ;; *************** function ___flmul *****************
  1447 ;; Defined at:
  1448 ;;		line 8 in file "C:\Program Files\Microchip\xc8\v2.32\pic\sources\c90\common\sprcmul.c"
  1449 ;; Parameters:    Size  Location     Type
  1450 ;;  b               4    0[BANK0 ] long 
  1451 ;;  a               4    4[BANK0 ] long 
  1452 ;; Auto vars:     Size  Location     Type
  1453 ;;  prod            4   20[BANK0 ] struct .
  1454 ;;  grs             4   14[BANK0 ] unsigned long 
  1455 ;;  temp            2   24[BANK0 ] struct .
  1456 ;;  bexp            1   19[BANK0 ] unsigned char 
  1457 ;;  aexp            1   18[BANK0 ] unsigned char 
  1458 ;;  sign            1   13[BANK0 ] unsigned char 
  1459 ;; Return value:  Size  Location     Type
  1460 ;;                  4    0[BANK0 ] unsigned char 
  1461 ;; Registers used:
  1462 ;;		wreg, status,2, status,0, btemp+1, pclath, cstack
  1463 ;; Tracked objects:
  1464 ;;		On entry : 0/0
  1465 ;;		On exit  : 0/0
  1466 ;;		Unchanged: 0/0
  1467 ;; Data sizes:     COMMON   BANK0   BANK1   BANK3   BANK2
  1468 ;;      Params:         0       8       0       0       0
  1469 ;;      Locals:         0      13       0       0       0
  1470 ;;      Temps:          0       5       0       0       0
  1471 ;;      Totals:         0      26       0       0       0
  1472 ;;Total ram usage:       26 bytes
  1473 ;; Hardware stack levels used: 1
  1474 ;; Hardware stack levels required when called: 1
  1475 ;; This function calls:
  1476 ;;		__Umul8_16
  1477 ;; This function is called by:
  1478 ;;		_voltage
  1479 ;; This function uses a non-reentrant model
  1480 ;;
  1481                           
  1482                           
  1483                           ;psect for function ___flmul
  1484  0493                     ___flmul:
  1485  0493                     l1490:	
  1486                           ;incstack = 0
  1487                           ; Regs used in ___flmul: [wreg+status,2+status,0+btemp+1+pclath+cstack]
  1488                           
  1489  0493  1283               	bcf	3,5	;RP0=0, select bank0
  1490  0494  1303               	bcf	3,6	;RP1=0, select bank0
  1491  0495  0823               	movf	___flmul@b+3,w
  1492  0496  3980               	andlw	128
  1493  0497  00A8               	movwf	??___flmul
  1494  0498  0828               	movf	??___flmul,w
  1495  0499  00AD               	movwf	___flmul@sign
  1496  049A                     l1492:
  1497  049A  0823               	movf	___flmul@b+3,w
  1498  049B  00A8               	movwf	??___flmul
  1499  049C  0728               	addwf	??___flmul,w
  1500  049D  00A9               	movwf	??___flmul+1
  1501  049E  0829               	movf	??___flmul+1,w
  1502  049F  00B3               	movwf	___flmul@bexp
  1503  04A0                     l1494:
  1504  04A0  1FA2               	btfss	___flmul@b+2,7
  1505  04A1  2CA3               	goto	u1831
  1506  04A2  2CA4               	goto	u1830
  1507  04A3                     u1831:
  1508  04A3  2CA5               	goto	l1498
  1509  04A4                     u1830:
  1510  04A4                     l1496:
  1511  04A4  1433               	bsf	___flmul@bexp,0
  1512  04A5                     l1498:
  1513  04A5  0833               	movf	___flmul@bexp,w
  1514  04A6  1903               	btfsc	3,2
  1515  04A7  2CA9               	goto	u1841
  1516  04A8  2CAA               	goto	u1840
  1517  04A9                     u1841:
  1518  04A9  2CB9               	goto	l1506
  1519  04AA                     u1840:
  1520  04AA                     l1500:
  1521  04AA  0A33               	incf	___flmul@bexp,w
  1522  04AB  1D03               	btfss	3,2
  1523  04AC  2CAE               	goto	u1851
  1524  04AD  2CAF               	goto	u1850
  1525  04AE                     u1851:
  1526  04AE  2CB7               	goto	l1504
  1527  04AF                     u1850:
  1528  04AF                     l1502:
  1529  04AF  3000               	movlw	0
  1530  04B0  00A3               	movwf	___flmul@b+3
  1531  04B1  3000               	movlw	0
  1532  04B2  00A2               	movwf	___flmul@b+2
  1533  04B3  3000               	movlw	0
  1534  04B4  00A1               	movwf	___flmul@b+1
  1535  04B5  3000               	movlw	0
  1536  04B6  00A0               	movwf	___flmul@b
  1537  04B7                     l1504:
  1538  04B7  17A2               	bsf	___flmul@b+2,7
  1539  04B8  2CC1               	goto	l1508
  1540  04B9                     l1506:
  1541  04B9  3000               	movlw	0
  1542  04BA  00A3               	movwf	___flmul@b+3
  1543  04BB  3000               	movlw	0
  1544  04BC  00A2               	movwf	___flmul@b+2
  1545  04BD  3000               	movlw	0
  1546  04BE  00A1               	movwf	___flmul@b+1
  1547  04BF  3000               	movlw	0
  1548  04C0  00A0               	movwf	___flmul@b
  1549  04C1                     l1508:
  1550  04C1  0827               	movf	___flmul@a+3,w
  1551  04C2  3980               	andlw	128
  1552  04C3  00A8               	movwf	??___flmul
  1553  04C4  0828               	movf	??___flmul,w
  1554  04C5  06AD               	xorwf	___flmul@sign,f
  1555  04C6                     l1510:
  1556  04C6  0827               	movf	___flmul@a+3,w
  1557  04C7  00A8               	movwf	??___flmul
  1558  04C8  0728               	addwf	??___flmul,w
  1559  04C9  00A9               	movwf	??___flmul+1
  1560  04CA  0829               	movf	??___flmul+1,w
  1561  04CB  00B2               	movwf	___flmul@aexp
  1562  04CC                     l1512:
  1563  04CC  1FA6               	btfss	___flmul@a+2,7
  1564  04CD  2CCF               	goto	u1861
  1565  04CE  2CD0               	goto	u1860
  1566  04CF                     u1861:
  1567  04CF  2CD1               	goto	l1516
  1568  04D0                     u1860:
  1569  04D0                     l1514:
  1570  04D0  1432               	bsf	___flmul@aexp,0
  1571  04D1                     l1516:
  1572  04D1  0832               	movf	___flmul@aexp,w
  1573  04D2  1903               	btfsc	3,2
  1574  04D3  2CD5               	goto	u1871
  1575  04D4  2CD6               	goto	u1870
  1576  04D5                     u1871:
  1577  04D5  2CE5               	goto	l1524
  1578  04D6                     u1870:
  1579  04D6                     l1518:
  1580  04D6  0A32               	incf	___flmul@aexp,w
  1581  04D7  1D03               	btfss	3,2
  1582  04D8  2CDA               	goto	u1881
  1583  04D9  2CDB               	goto	u1880
  1584  04DA                     u1881:
  1585  04DA  2CE3               	goto	l1522
  1586  04DB                     u1880:
  1587  04DB                     l1520:
  1588  04DB  3000               	movlw	0
  1589  04DC  00A7               	movwf	___flmul@a+3
  1590  04DD  3000               	movlw	0
  1591  04DE  00A6               	movwf	___flmul@a+2
  1592  04DF  3000               	movlw	0
  1593  04E0  00A5               	movwf	___flmul@a+1
  1594  04E1  3000               	movlw	0
  1595  04E2  00A4               	movwf	___flmul@a
  1596  04E3                     l1522:
  1597  04E3  17A6               	bsf	___flmul@a+2,7
  1598  04E4  2CED               	goto	l1526
  1599  04E5                     l1524:
  1600  04E5  3000               	movlw	0
  1601  04E6  00A7               	movwf	___flmul@a+3
  1602  04E7  3000               	movlw	0
  1603  04E8  00A6               	movwf	___flmul@a+2
  1604  04E9  3000               	movlw	0
  1605  04EA  00A5               	movwf	___flmul@a+1
  1606  04EB  3000               	movlw	0
  1607  04EC  00A4               	movwf	___flmul@a
  1608  04ED                     l1526:
  1609  04ED  0832               	movf	___flmul@aexp,w
  1610  04EE  1903               	btfsc	3,2
  1611  04EF  2CF1               	goto	u1891
  1612  04F0  2CF2               	goto	u1890
  1613  04F1                     u1891:
  1614  04F1  2CF7               	goto	l1530
  1615  04F2                     u1890:
  1616  04F2                     l1528:
  1617  04F2  0833               	movf	___flmul@bexp,w
  1618  04F3  1D03               	btfss	3,2
  1619  04F4  2CF6               	goto	u1901
  1620  04F5  2CF7               	goto	u1900
  1621  04F6                     u1901:
  1622  04F6  2D00               	goto	l1534
  1623  04F7                     u1900:
  1624  04F7                     l1530:
  1625  04F7  3000               	movlw	0
  1626  04F8  00A3               	movwf	?___flmul+3
  1627  04F9  3000               	movlw	0
  1628  04FA  00A2               	movwf	?___flmul+2
  1629  04FB  3000               	movlw	0
  1630  04FC  00A1               	movwf	?___flmul+1
  1631  04FD  3000               	movlw	0
  1632  04FE  00A0               	movwf	?___flmul
  1633  04FF  2FF3               	goto	l549
  1634  0500                     l1534:
  1635  0500  0820               	movf	___flmul@b,w
  1636  0501  00A8               	movwf	??___flmul
  1637  0502  0828               	movf	??___flmul,w
  1638  0503  00F0               	movwf	__Umul8_16@multiplicand
  1639  0504  0826               	movf	___flmul@a+2,w
  1640  0505  120A  158A  25D2  120A  118A  	fcall	__Umul8_16
  1641  050A  0871               	movf	?__Umul8_16+1,w
  1642  050B  1283               	bcf	3,5	;RP0=0, select bank0
  1643  050C  1303               	bcf	3,6	;RP1=0, select bank0
  1644  050D  00B9               	movwf	___flmul@temp+1
  1645  050E  0870               	movf	?__Umul8_16,w
  1646  050F  00B8               	movwf	___flmul@temp
  1647  0510                     l1536:
  1648  0510  0838               	movf	___flmul@temp,w
  1649  0511  00A8               	movwf	??___flmul
  1650  0512  01A9               	clrf	??___flmul+1
  1651  0513  01AA               	clrf	??___flmul+2
  1652  0514  01AB               	clrf	??___flmul+3
  1653  0515  082B               	movf	??___flmul+3,w
  1654  0516  00B1               	movwf	___flmul@grs+3
  1655  0517  082A               	movf	??___flmul+2,w
  1656  0518  00B0               	movwf	___flmul@grs+2
  1657  0519  0829               	movf	??___flmul+1,w
  1658  051A  00AF               	movwf	___flmul@grs+1
  1659  051B  0828               	movf	??___flmul,w
  1660  051C  00AE               	movwf	___flmul@grs
  1661  051D                     l1538:
  1662  051D  0839               	movf	___flmul@temp+1,w
  1663  051E  00A8               	movwf	??___flmul
  1664  051F  01A9               	clrf	??___flmul+1
  1665  0520  01AA               	clrf	??___flmul+2
  1666  0521  01AB               	clrf	??___flmul+3
  1667  0522  082B               	movf	??___flmul+3,w
  1668  0523  00B7               	movwf	___flmul@prod+3
  1669  0524  082A               	movf	??___flmul+2,w
  1670  0525  00B6               	movwf	___flmul@prod+2
  1671  0526  0829               	movf	??___flmul+1,w
  1672  0527  00B5               	movwf	___flmul@prod+1
  1673  0528  0828               	movf	??___flmul,w
  1674  0529  00B4               	movwf	___flmul@prod
  1675  052A  0821               	movf	___flmul@b+1,w
  1676  052B  00A8               	movwf	??___flmul
  1677  052C  0828               	movf	??___flmul,w
  1678  052D  00F0               	movwf	__Umul8_16@multiplicand
  1679  052E  0825               	movf	___flmul@a+1,w
  1680  052F  120A  158A  25D2  120A  118A  	fcall	__Umul8_16
  1681  0534  0871               	movf	?__Umul8_16+1,w
  1682  0535  1283               	bcf	3,5	;RP0=0, select bank0
  1683  0536  1303               	bcf	3,6	;RP1=0, select bank0
  1684  0537  00B9               	movwf	___flmul@temp+1
  1685  0538  0870               	movf	?__Umul8_16,w
  1686  0539  00B8               	movwf	___flmul@temp
  1687  053A                     l1540:
  1688  053A  0838               	movf	___flmul@temp,w
  1689  053B  00A8               	movwf	??___flmul
  1690  053C  01A9               	clrf	??___flmul+1
  1691  053D  01AA               	clrf	??___flmul+2
  1692  053E  01AB               	clrf	??___flmul+3
  1693  053F  0828               	movf	??___flmul,w
  1694  0540  07AE               	addwf	___flmul@grs,f
  1695  0541  0829               	movf	??___flmul+1,w
  1696  0542  1103               	clrz
  1697  0543  1803               	skipnc
  1698  0544  3E01               	addlw	1
  1699  0545  1903               	skipnz
  1700  0546  2D48               	goto	u1911
  1701  0547  07AF               	addwf	___flmul@grs+1,f
  1702  0548                     u1911:
  1703  0548  082A               	movf	??___flmul+2,w
  1704  0549  1103               	clrz
  1705  054A  1803               	skipnc
  1706  054B  3E01               	addlw	1
  1707  054C  1903               	skipnz
  1708  054D  2D4F               	goto	u1912
  1709  054E  07B0               	addwf	___flmul@grs+2,f
  1710  054F                     u1912:
  1711  054F  082B               	movf	??___flmul+3,w
  1712  0550  1103               	clrz
  1713  0551  1803               	skipnc
  1714  0552  3E01               	addlw	1
  1715  0553  1903               	skipnz
  1716  0554  2D56               	goto	u1913
  1717  0555  07B1               	addwf	___flmul@grs+3,f
  1718  0556                     u1913:
  1719  0556                     l1542:
  1720  0556  0839               	movf	___flmul@temp+1,w
  1721  0557  00A8               	movwf	??___flmul
  1722  0558  01A9               	clrf	??___flmul+1
  1723  0559  01AA               	clrf	??___flmul+2
  1724  055A  01AB               	clrf	??___flmul+3
  1725  055B  0828               	movf	??___flmul,w
  1726  055C  07B4               	addwf	___flmul@prod,f
  1727  055D  0829               	movf	??___flmul+1,w
  1728  055E  1103               	clrz
  1729  055F  1803               	skipnc
  1730  0560  3E01               	addlw	1
  1731  0561  1903               	skipnz
  1732  0562  2D64               	goto	u1921
  1733  0563  07B5               	addwf	___flmul@prod+1,f
  1734  0564                     u1921:
  1735  0564  082A               	movf	??___flmul+2,w
  1736  0565  1103               	clrz
  1737  0566  1803               	skipnc
  1738  0567  3E01               	addlw	1
  1739  0568  1903               	skipnz
  1740  0569  2D6B               	goto	u1922
  1741  056A  07B6               	addwf	___flmul@prod+2,f
  1742  056B                     u1922:
  1743  056B  082B               	movf	??___flmul+3,w
  1744  056C  1103               	clrz
  1745  056D  1803               	skipnc
  1746  056E  3E01               	addlw	1
  1747  056F  1903               	skipnz
  1748  0570  2D72               	goto	u1923
  1749  0571  07B7               	addwf	___flmul@prod+3,f
  1750  0572                     u1923:
  1751  0572  0822               	movf	___flmul@b+2,w
  1752  0573  00A8               	movwf	??___flmul
  1753  0574  0828               	movf	??___flmul,w
  1754  0575  00F0               	movwf	__Umul8_16@multiplicand
  1755  0576  0824               	movf	___flmul@a,w
  1756  0577  120A  158A  25D2  120A  118A  	fcall	__Umul8_16
  1757  057C  0871               	movf	?__Umul8_16+1,w
  1758  057D  1283               	bcf	3,5	;RP0=0, select bank0
  1759  057E  1303               	bcf	3,6	;RP1=0, select bank0
  1760  057F  00B9               	movwf	___flmul@temp+1
  1761  0580  0870               	movf	?__Umul8_16,w
  1762  0581  00B8               	movwf	___flmul@temp
  1763  0582                     l1544:
  1764  0582  0838               	movf	___flmul@temp,w
  1765  0583  00A8               	movwf	??___flmul
  1766  0584  01A9               	clrf	??___flmul+1
  1767  0585  01AA               	clrf	??___flmul+2
  1768  0586  01AB               	clrf	??___flmul+3
  1769  0587  0828               	movf	??___flmul,w
  1770  0588  07AE               	addwf	___flmul@grs,f
  1771  0589  0829               	movf	??___flmul+1,w
  1772  058A  1103               	clrz
  1773  058B  1803               	skipnc
  1774  058C  3E01               	addlw	1
  1775  058D  1903               	skipnz
  1776  058E  2D90               	goto	u1931
  1777  058F  07AF               	addwf	___flmul@grs+1,f
  1778  0590                     u1931:
  1779  0590  082A               	movf	??___flmul+2,w
  1780  0591  1103               	clrz
  1781  0592  1803               	skipnc
  1782  0593  3E01               	addlw	1
  1783  0594  1903               	skipnz
  1784  0595  2D97               	goto	u1932
  1785  0596  07B0               	addwf	___flmul@grs+2,f
  1786  0597                     u1932:
  1787  0597  082B               	movf	??___flmul+3,w
  1788  0598  1103               	clrz
  1789  0599  1803               	skipnc
  1790  059A  3E01               	addlw	1
  1791  059B  1903               	skipnz
  1792  059C  2D9E               	goto	u1933
  1793  059D  07B1               	addwf	___flmul@grs+3,f
  1794  059E                     u1933:
  1795  059E                     l1546:
  1796  059E  0839               	movf	___flmul@temp+1,w
  1797  059F  00A8               	movwf	??___flmul
  1798  05A0  01A9               	clrf	??___flmul+1
  1799  05A1  01AA               	clrf	??___flmul+2
  1800  05A2  01AB               	clrf	??___flmul+3
  1801  05A3  0828               	movf	??___flmul,w
  1802  05A4  07B4               	addwf	___flmul@prod,f
  1803  05A5  0829               	movf	??___flmul+1,w
  1804  05A6  1103               	clrz
  1805  05A7  1803               	skipnc
  1806  05A8  3E01               	addlw	1
  1807  05A9  1903               	skipnz
  1808  05AA  2DAC               	goto	u1941
  1809  05AB  07B5               	addwf	___flmul@prod+1,f
  1810  05AC                     u1941:
  1811  05AC  082A               	movf	??___flmul+2,w
  1812  05AD  1103               	clrz
  1813  05AE  1803               	skipnc
  1814  05AF  3E01               	addlw	1
  1815  05B0  1903               	skipnz
  1816  05B1  2DB3               	goto	u1942
  1817  05B2  07B6               	addwf	___flmul@prod+2,f
  1818  05B3                     u1942:
  1819  05B3  082B               	movf	??___flmul+3,w
  1820  05B4  1103               	clrz
  1821  05B5  1803               	skipnc
  1822  05B6  3E01               	addlw	1
  1823  05B7  1903               	skipnz
  1824  05B8  2DBA               	goto	u1943
  1825  05B9  07B7               	addwf	___flmul@prod+3,f
  1826  05BA                     u1943:
  1827  05BA                     l1548:
  1828  05BA  3008               	movlw	8
  1829  05BB  00A8               	movwf	??___flmul
  1830  05BC                     u1955:
  1831  05BC  1003               	clrc
  1832  05BD  0DAE               	rlf	___flmul@grs,f
  1833  05BE  0DAF               	rlf	___flmul@grs+1,f
  1834  05BF  0DB0               	rlf	___flmul@grs+2,f
  1835  05C0  0DB1               	rlf	___flmul@grs+3,f
  1836  05C1  0BA8               	decfsz	??___flmul,f
  1837  05C2  2DBC               	goto	u1955
  1838  05C3                     l1550:
  1839  05C3  0821               	movf	___flmul@b+1,w
  1840  05C4  00A8               	movwf	??___flmul
  1841  05C5  0828               	movf	??___flmul,w
  1842  05C6  00F0               	movwf	__Umul8_16@multiplicand
  1843  05C7  0824               	movf	___flmul@a,w
  1844  05C8  120A  158A  25D2  120A  118A  	fcall	__Umul8_16
  1845  05CD  0871               	movf	?__Umul8_16+1,w
  1846  05CE  1283               	bcf	3,5	;RP0=0, select bank0
  1847  05CF  1303               	bcf	3,6	;RP1=0, select bank0
  1848  05D0  00B9               	movwf	___flmul@temp+1
  1849  05D1  0870               	movf	?__Umul8_16,w
  1850  05D2  00B8               	movwf	___flmul@temp
  1851  05D3                     l1552:
  1852  05D3  0838               	movf	___flmul@temp,w
  1853  05D4  00A8               	movwf	??___flmul
  1854  05D5  0839               	movf	___flmul@temp+1,w
  1855  05D6  00A9               	movwf	??___flmul+1
  1856  05D7  01AA               	clrf	??___flmul+2
  1857  05D8  01AB               	clrf	??___flmul+3
  1858  05D9  0828               	movf	??___flmul,w
  1859  05DA  07AE               	addwf	___flmul@grs,f
  1860  05DB  0829               	movf	??___flmul+1,w
  1861  05DC  1103               	clrz
  1862  05DD  1803               	skipnc
  1863  05DE  3E01               	addlw	1
  1864  05DF  1903               	skipnz
  1865  05E0  2DE2               	goto	u1961
  1866  05E1  07AF               	addwf	___flmul@grs+1,f
  1867  05E2                     u1961:
  1868  05E2  082A               	movf	??___flmul+2,w
  1869  05E3  1103               	clrz
  1870  05E4  1803               	skipnc
  1871  05E5  3E01               	addlw	1
  1872  05E6  1903               	skipnz
  1873  05E7  2DE9               	goto	u1962
  1874  05E8  07B0               	addwf	___flmul@grs+2,f
  1875  05E9                     u1962:
  1876  05E9  082B               	movf	??___flmul+3,w
  1877  05EA  1103               	clrz
  1878  05EB  1803               	skipnc
  1879  05EC  3E01               	addlw	1
  1880  05ED  1903               	skipnz
  1881  05EE  2DF0               	goto	u1963
  1882  05EF  07B1               	addwf	___flmul@grs+3,f
  1883  05F0                     u1963:
  1884  05F0                     l1554:
  1885  05F0  0820               	movf	___flmul@b,w
  1886  05F1  00A8               	movwf	??___flmul
  1887  05F2  0828               	movf	??___flmul,w
  1888  05F3  00F0               	movwf	__Umul8_16@multiplicand
  1889  05F4  0825               	movf	___flmul@a+1,w
  1890  05F5  120A  158A  25D2  120A  118A  	fcall	__Umul8_16
  1891  05FA  0871               	movf	?__Umul8_16+1,w
  1892  05FB  1283               	bcf	3,5	;RP0=0, select bank0
  1893  05FC  1303               	bcf	3,6	;RP1=0, select bank0
  1894  05FD  00B9               	movwf	___flmul@temp+1
  1895  05FE  0870               	movf	?__Umul8_16,w
  1896  05FF  00B8               	movwf	___flmul@temp
  1897  0600                     l1556:
  1898  0600  0838               	movf	___flmul@temp,w
  1899  0601  00A8               	movwf	??___flmul
  1900  0602  0839               	movf	___flmul@temp+1,w
  1901  0603  00A9               	movwf	??___flmul+1
  1902  0604  01AA               	clrf	??___flmul+2
  1903  0605  01AB               	clrf	??___flmul+3
  1904  0606  0828               	movf	??___flmul,w
  1905  0607  07AE               	addwf	___flmul@grs,f
  1906  0608  0829               	movf	??___flmul+1,w
  1907  0609  1103               	clrz
  1908  060A  1803               	skipnc
  1909  060B  3E01               	addlw	1
  1910  060C  1903               	skipnz
  1911  060D  2E0F               	goto	u1971
  1912  060E  07AF               	addwf	___flmul@grs+1,f
  1913  060F                     u1971:
  1914  060F  082A               	movf	??___flmul+2,w
  1915  0610  1103               	clrz
  1916  0611  1803               	skipnc
  1917  0612  3E01               	addlw	1
  1918  0613  1903               	skipnz
  1919  0614  2E16               	goto	u1972
  1920  0615  07B0               	addwf	___flmul@grs+2,f
  1921  0616                     u1972:
  1922  0616  082B               	movf	??___flmul+3,w
  1923  0617  1103               	clrz
  1924  0618  1803               	skipnc
  1925  0619  3E01               	addlw	1
  1926  061A  1903               	skipnz
  1927  061B  2E1D               	goto	u1973
  1928  061C  07B1               	addwf	___flmul@grs+3,f
  1929  061D                     u1973:
  1930  061D                     l1558:
  1931  061D  3008               	movlw	8
  1932  061E  00A8               	movwf	??___flmul
  1933  061F                     u1985:
  1934  061F  1003               	clrc
  1935  0620  0DAE               	rlf	___flmul@grs,f
  1936  0621  0DAF               	rlf	___flmul@grs+1,f
  1937  0622  0DB0               	rlf	___flmul@grs+2,f
  1938  0623  0DB1               	rlf	___flmul@grs+3,f
  1939  0624  0BA8               	decfsz	??___flmul,f
  1940  0625  2E1F               	goto	u1985
  1941  0626  0820               	movf	___flmul@b,w
  1942  0627  00A8               	movwf	??___flmul
  1943  0628  0828               	movf	??___flmul,w
  1944  0629  00F0               	movwf	__Umul8_16@multiplicand
  1945  062A  0824               	movf	___flmul@a,w
  1946  062B  120A  158A  25D2  120A  118A  	fcall	__Umul8_16
  1947  0630  0871               	movf	?__Umul8_16+1,w
  1948  0631  1283               	bcf	3,5	;RP0=0, select bank0
  1949  0632  1303               	bcf	3,6	;RP1=0, select bank0
  1950  0633  00B9               	movwf	___flmul@temp+1
  1951  0634  0870               	movf	?__Umul8_16,w
  1952  0635  00B8               	movwf	___flmul@temp
  1953  0636                     l1560:
  1954  0636  0838               	movf	___flmul@temp,w
  1955  0637  00A8               	movwf	??___flmul
  1956  0638  0839               	movf	___flmul@temp+1,w
  1957  0639  00A9               	movwf	??___flmul+1
  1958  063A  01AA               	clrf	??___flmul+2
  1959  063B  01AB               	clrf	??___flmul+3
  1960  063C  0828               	movf	??___flmul,w
  1961  063D  07AE               	addwf	___flmul@grs,f
  1962  063E  0829               	movf	??___flmul+1,w
  1963  063F  1103               	clrz
  1964  0640  1803               	skipnc
  1965  0641  3E01               	addlw	1
  1966  0642  1903               	skipnz
  1967  0643  2E45               	goto	u1991
  1968  0644  07AF               	addwf	___flmul@grs+1,f
  1969  0645                     u1991:
  1970  0645  082A               	movf	??___flmul+2,w
  1971  0646  1103               	clrz
  1972  0647  1803               	skipnc
  1973  0648  3E01               	addlw	1
  1974  0649  1903               	skipnz
  1975  064A  2E4C               	goto	u1992
  1976  064B  07B0               	addwf	___flmul@grs+2,f
  1977  064C                     u1992:
  1978  064C  082B               	movf	??___flmul+3,w
  1979  064D  1103               	clrz
  1980  064E  1803               	skipnc
  1981  064F  3E01               	addlw	1
  1982  0650  1903               	skipnz
  1983  0651  2E53               	goto	u1993
  1984  0652  07B1               	addwf	___flmul@grs+3,f
  1985  0653                     u1993:
  1986  0653                     l1562:
  1987  0653  0821               	movf	___flmul@b+1,w
  1988  0654  00A8               	movwf	??___flmul
  1989  0655  0828               	movf	??___flmul,w
  1990  0656  00F0               	movwf	__Umul8_16@multiplicand
  1991  0657  0826               	movf	___flmul@a+2,w
  1992  0658  120A  158A  25D2  120A  118A  	fcall	__Umul8_16
  1993  065D  0871               	movf	?__Umul8_16+1,w
  1994  065E  1283               	bcf	3,5	;RP0=0, select bank0
  1995  065F  1303               	bcf	3,6	;RP1=0, select bank0
  1996  0660  00B9               	movwf	___flmul@temp+1
  1997  0661  0870               	movf	?__Umul8_16,w
  1998  0662  00B8               	movwf	___flmul@temp
  1999  0663  0838               	movf	___flmul@temp,w
  2000  0664  00A8               	movwf	??___flmul
  2001  0665  0839               	movf	___flmul@temp+1,w
  2002  0666  00A9               	movwf	??___flmul+1
  2003  0667  01AA               	clrf	??___flmul+2
  2004  0668  01AB               	clrf	??___flmul+3
  2005  0669  0828               	movf	??___flmul,w
  2006  066A  07B4               	addwf	___flmul@prod,f
  2007  066B  0829               	movf	??___flmul+1,w
  2008  066C  1103               	clrz
  2009  066D  1803               	skipnc
  2010  066E  3E01               	addlw	1
  2011  066F  1903               	skipnz
  2012  0670  2E72               	goto	u2001
  2013  0671  07B5               	addwf	___flmul@prod+1,f
  2014  0672                     u2001:
  2015  0672  082A               	movf	??___flmul+2,w
  2016  0673  1103               	clrz
  2017  0674  1803               	skipnc
  2018  0675  3E01               	addlw	1
  2019  0676  1903               	skipnz
  2020  0677  2E79               	goto	u2002
  2021  0678  07B6               	addwf	___flmul@prod+2,f
  2022  0679                     u2002:
  2023  0679  082B               	movf	??___flmul+3,w
  2024  067A  1103               	clrz
  2025  067B  1803               	skipnc
  2026  067C  3E01               	addlw	1
  2027  067D  1903               	skipnz
  2028  067E  2E80               	goto	u2003
  2029  067F  07B7               	addwf	___flmul@prod+3,f
  2030  0680                     u2003:
  2031  0680                     l1564:
  2032  0680  0822               	movf	___flmul@b+2,w
  2033  0681  00A8               	movwf	??___flmul
  2034  0682  0828               	movf	??___flmul,w
  2035  0683  00F0               	movwf	__Umul8_16@multiplicand
  2036  0684  0825               	movf	___flmul@a+1,w
  2037  0685  120A  158A  25D2  120A  118A  	fcall	__Umul8_16
  2038  068A  0871               	movf	?__Umul8_16+1,w
  2039  068B  1283               	bcf	3,5	;RP0=0, select bank0
  2040  068C  1303               	bcf	3,6	;RP1=0, select bank0
  2041  068D  00B9               	movwf	___flmul@temp+1
  2042  068E  0870               	movf	?__Umul8_16,w
  2043  068F  00B8               	movwf	___flmul@temp
  2044  0690                     l1566:
  2045  0690  0838               	movf	___flmul@temp,w
  2046  0691  00A8               	movwf	??___flmul
  2047  0692  0839               	movf	___flmul@temp+1,w
  2048  0693  00A9               	movwf	??___flmul+1
  2049  0694  01AA               	clrf	??___flmul+2
  2050  0695  01AB               	clrf	??___flmul+3
  2051  0696  0828               	movf	??___flmul,w
  2052  0697  07B4               	addwf	___flmul@prod,f
  2053  0698  0829               	movf	??___flmul+1,w
  2054  0699  1103               	clrz
  2055  069A  1803               	skipnc
  2056  069B  3E01               	addlw	1
  2057  069C  1903               	skipnz
  2058  069D  2E9F               	goto	u2011
  2059  069E  07B5               	addwf	___flmul@prod+1,f
  2060  069F                     u2011:
  2061  069F  082A               	movf	??___flmul+2,w
  2062  06A0  1103               	clrz
  2063  06A1  1803               	skipnc
  2064  06A2  3E01               	addlw	1
  2065  06A3  1903               	skipnz
  2066  06A4  2EA6               	goto	u2012
  2067  06A5  07B6               	addwf	___flmul@prod+2,f
  2068  06A6                     u2012:
  2069  06A6  082B               	movf	??___flmul+3,w
  2070  06A7  1103               	clrz
  2071  06A8  1803               	skipnc
  2072  06A9  3E01               	addlw	1
  2073  06AA  1903               	skipnz
  2074  06AB  2EAD               	goto	u2013
  2075  06AC  07B7               	addwf	___flmul@prod+3,f
  2076  06AD                     u2013:
  2077  06AD  0822               	movf	___flmul@b+2,w
  2078  06AE  00A8               	movwf	??___flmul
  2079  06AF  0828               	movf	??___flmul,w
  2080  06B0  00F0               	movwf	__Umul8_16@multiplicand
  2081  06B1  0826               	movf	___flmul@a+2,w
  2082  06B2  120A  158A  25D2  120A  118A  	fcall	__Umul8_16
  2083  06B7  0871               	movf	?__Umul8_16+1,w
  2084  06B8  1283               	bcf	3,5	;RP0=0, select bank0
  2085  06B9  1303               	bcf	3,6	;RP1=0, select bank0
  2086  06BA  00B9               	movwf	___flmul@temp+1
  2087  06BB  0870               	movf	?__Umul8_16,w
  2088  06BC  00B8               	movwf	___flmul@temp
  2089  06BD                     l1568:
  2090  06BD  0838               	movf	___flmul@temp,w
  2091  06BE  00A8               	movwf	??___flmul
  2092  06BF  0839               	movf	___flmul@temp+1,w
  2093  06C0  00A9               	movwf	??___flmul+1
  2094  06C1  01AA               	clrf	??___flmul+2
  2095  06C2  01AB               	clrf	??___flmul+3
  2096  06C3  3008               	movlw	8
  2097  06C4                     u2025:
  2098  06C4  1003               	clrc
  2099  06C5  0DA8               	rlf	??___flmul,f
  2100  06C6  0DA9               	rlf	??___flmul+1,f
  2101  06C7  0DAA               	rlf	??___flmul+2,f
  2102  06C8  0DAB               	rlf	??___flmul+3,f
  2103  06C9                     u2020:
  2104  06C9  3EFF               	addlw	-1
  2105  06CA  1D03               	skipz
  2106  06CB  2EC4               	goto	u2025
  2107  06CC  0828               	movf	??___flmul,w
  2108  06CD  07B4               	addwf	___flmul@prod,f
  2109  06CE  0829               	movf	??___flmul+1,w
  2110  06CF  1103               	clrz
  2111  06D0  1803               	skipnc
  2112  06D1  3E01               	addlw	1
  2113  06D2  1903               	skipnz
  2114  06D3  2ED5               	goto	u2031
  2115  06D4  07B5               	addwf	___flmul@prod+1,f
  2116  06D5                     u2031:
  2117  06D5  082A               	movf	??___flmul+2,w
  2118  06D6  1103               	clrz
  2119  06D7  1803               	skipnc
  2120  06D8  3E01               	addlw	1
  2121  06D9  1903               	skipnz
  2122  06DA  2EDC               	goto	u2032
  2123  06DB  07B6               	addwf	___flmul@prod+2,f
  2124  06DC                     u2032:
  2125  06DC  082B               	movf	??___flmul+3,w
  2126  06DD  1103               	clrz
  2127  06DE  1803               	skipnc
  2128  06DF  3E01               	addlw	1
  2129  06E0  1903               	skipnz
  2130  06E1  2EE3               	goto	u2033
  2131  06E2  07B7               	addwf	___flmul@prod+3,f
  2132  06E3                     u2033:
  2133  06E3                     l1570:
  2134  06E3  082E               	movf	___flmul@grs,w
  2135  06E4  00A8               	movwf	??___flmul
  2136  06E5  082F               	movf	___flmul@grs+1,w
  2137  06E6  00A9               	movwf	??___flmul+1
  2138  06E7  0830               	movf	___flmul@grs+2,w
  2139  06E8  00AA               	movwf	??___flmul+2
  2140  06E9  0831               	movf	___flmul@grs+3,w
  2141  06EA  00AB               	movwf	??___flmul+3
  2142  06EB  3018               	movlw	24
  2143  06EC                     u2045:
  2144  06EC  1003               	clrc
  2145  06ED  0CAB               	rrf	??___flmul+3,f
  2146  06EE  0CAA               	rrf	??___flmul+2,f
  2147  06EF  0CA9               	rrf	??___flmul+1,f
  2148  06F0  0CA8               	rrf	??___flmul,f
  2149  06F1                     u2040:
  2150  06F1  3EFF               	addlw	-1
  2151  06F2  1D03               	skipz
  2152  06F3  2EEC               	goto	u2045
  2153  06F4  0828               	movf	??___flmul,w
  2154  06F5  07B4               	addwf	___flmul@prod,f
  2155  06F6  0829               	movf	??___flmul+1,w
  2156  06F7  1103               	clrz
  2157  06F8  1803               	skipnc
  2158  06F9  3E01               	addlw	1
  2159  06FA  1903               	skipnz
  2160  06FB  2EFD               	goto	u2051
  2161  06FC  07B5               	addwf	___flmul@prod+1,f
  2162  06FD                     u2051:
  2163  06FD  082A               	movf	??___flmul+2,w
  2164  06FE  1103               	clrz
  2165  06FF  1803               	skipnc
  2166  0700  3E01               	addlw	1
  2167  0701  1903               	skipnz
  2168  0702  2F04               	goto	u2052
  2169  0703  07B6               	addwf	___flmul@prod+2,f
  2170  0704                     u2052:
  2171  0704  082B               	movf	??___flmul+3,w
  2172  0705  1103               	clrz
  2173  0706  1803               	skipnc
  2174  0707  3E01               	addlw	1
  2175  0708  1903               	skipnz
  2176  0709  2F0B               	goto	u2053
  2177  070A  07B7               	addwf	___flmul@prod+3,f
  2178  070B                     u2053:
  2179  070B                     l1572:
  2180  070B  3008               	movlw	8
  2181  070C  00A8               	movwf	??___flmul
  2182  070D                     u2065:
  2183  070D  1003               	clrc
  2184  070E  0DAE               	rlf	___flmul@grs,f
  2185  070F  0DAF               	rlf	___flmul@grs+1,f
  2186  0710  0DB0               	rlf	___flmul@grs+2,f
  2187  0711  0DB1               	rlf	___flmul@grs+3,f
  2188  0712  0BA8               	decfsz	??___flmul,f
  2189  0713  2F0D               	goto	u2065
  2190  0714                     l1574:
  2191  0714  0833               	movf	___flmul@bexp,w
  2192  0715  0732               	addwf	___flmul@aexp,w
  2193  0716  00A8               	movwf	??___flmul
  2194  0717  01A9               	clrf	??___flmul+1
  2195  0718  0DA9               	rlf	??___flmul+1,f
  2196  0719  0828               	movf	??___flmul,w
  2197  071A  3E82               	addlw	130
  2198  071B  00B8               	movwf	___flmul@temp
  2199  071C  0829               	movf	??___flmul+1,w
  2200  071D  1803               	skipnc
  2201  071E  3E01               	addlw	1
  2202  071F  3EFF               	addlw	255
  2203  0720  00B9               	movwf	___flmul@temp+1
  2204  0721  2F3F               	goto	l1586
  2205  0722                     l1576:
  2206  0722  3001               	movlw	1
  2207  0723  00A8               	movwf	??___flmul
  2208  0724                     u2075:
  2209  0724  1003               	clrc
  2210  0725  0DB4               	rlf	___flmul@prod,f
  2211  0726  0DB5               	rlf	___flmul@prod+1,f
  2212  0727  0DB6               	rlf	___flmul@prod+2,f
  2213  0728  0DB7               	rlf	___flmul@prod+3,f
  2214  0729  0BA8               	decfsz	??___flmul,f
  2215  072A  2F24               	goto	u2075
  2216  072B                     l1578:
  2217  072B  1FB1               	btfss	___flmul@grs+3,7
  2218  072C  2F2E               	goto	u2081
  2219  072D  2F2F               	goto	u2080
  2220  072E                     u2081:
  2221  072E  2F30               	goto	l1582
  2222  072F                     u2080:
  2223  072F                     l1580:
  2224  072F  1434               	bsf	___flmul@prod,0
  2225  0730                     l1582:
  2226  0730  3001               	movlw	1
  2227  0731  00A8               	movwf	??___flmul
  2228  0732                     u2095:
  2229  0732  1003               	clrc
  2230  0733  0DAE               	rlf	___flmul@grs,f
  2231  0734  0DAF               	rlf	___flmul@grs+1,f
  2232  0735  0DB0               	rlf	___flmul@grs+2,f
  2233  0736  0DB1               	rlf	___flmul@grs+3,f
  2234  0737  0BA8               	decfsz	??___flmul,f
  2235  0738  2F32               	goto	u2095
  2236  0739                     l1584:
  2237  0739  30FF               	movlw	255
  2238  073A  07B8               	addwf	___flmul@temp,f
  2239  073B  1803               	skipnc
  2240  073C  0AB9               	incf	___flmul@temp+1,f
  2241  073D  30FF               	movlw	255
  2242  073E  07B9               	addwf	___flmul@temp+1,f
  2243  073F                     l1586:
  2244  073F  1FB6               	btfss	___flmul@prod+2,7
  2245  0740  2F42               	goto	u2101
  2246  0741  2F43               	goto	u2100
  2247  0742                     u2101:
  2248  0742  2F22               	goto	l1576
  2249  0743                     u2100:
  2250  0743                     l1588:
  2251  0743  01B2               	clrf	___flmul@aexp
  2252  0744                     l1590:
  2253  0744  1FB1               	btfss	___flmul@grs+3,7
  2254  0745  2F47               	goto	u2111
  2255  0746  2F48               	goto	u2110
  2256  0747                     u2111:
  2257  0747  2F64               	goto	l1598
  2258  0748                     u2110:
  2259  0748                     l1592:
  2260  0748  30FF               	movlw	255
  2261  0749  052E               	andwf	___flmul@grs,w
  2262  074A  00A8               	movwf	??___flmul
  2263  074B  30FF               	movlw	255
  2264  074C  052F               	andwf	___flmul@grs+1,w
  2265  074D  00A9               	movwf	??___flmul+1
  2266  074E  30FF               	movlw	255
  2267  074F  0530               	andwf	___flmul@grs+2,w
  2268  0750  00AA               	movwf	??___flmul+2
  2269  0751  307F               	movlw	127
  2270  0752  0531               	andwf	___flmul@grs+3,w
  2271  0753  00AB               	movwf	??___flmul+3
  2272  0754  082B               	movf	??___flmul+3,w
  2273  0755  042A               	iorwf	??___flmul+2,w
  2274  0756  0429               	iorwf	??___flmul+1,w
  2275  0757  0428               	iorwf	??___flmul,w
  2276  0758  1903               	skipnz
  2277  0759  2F5B               	goto	u2121
  2278  075A  2F5C               	goto	u2120
  2279  075B                     u2121:
  2280  075B  2F5F               	goto	l555
  2281  075C                     u2120:
  2282  075C                     l1594:
  2283  075C  01B2               	clrf	___flmul@aexp
  2284  075D  0AB2               	incf	___flmul@aexp,f
  2285  075E  2F64               	goto	l1598
  2286  075F                     l555:
  2287  075F  1C34               	btfss	___flmul@prod,0
  2288  0760  2F62               	goto	u2131
  2289  0761  2F63               	goto	u2130
  2290  0762                     u2131:
  2291  0762  2F64               	goto	l1598
  2292  0763                     u2130:
  2293  0763  2F5C               	goto	l1594
  2294  0764                     l1598:
  2295  0764  0832               	movf	___flmul@aexp,w
  2296  0765  1903               	btfsc	3,2
  2297  0766  2F68               	goto	u2141
  2298  0767  2F69               	goto	u2140
  2299  0768                     u2141:
  2300  0768  2F9A               	goto	l1608
  2301  0769                     u2140:
  2302  0769                     l1600:
  2303  0769  3001               	movlw	1
  2304  076A  07B4               	addwf	___flmul@prod,f
  2305  076B  3000               	movlw	0
  2306  076C  1803               	skipnc
  2307  076D  3001               	movlw	1
  2308  076E  07B5               	addwf	___flmul@prod+1,f
  2309  076F  3000               	movlw	0
  2310  0770  1803               	skipnc
  2311  0771  3001               	movlw	1
  2312  0772  07B6               	addwf	___flmul@prod+2,f
  2313  0773  3000               	movlw	0
  2314  0774  1803               	skipnc
  2315  0775  3001               	movlw	1
  2316  0776  07B7               	addwf	___flmul@prod+3,f
  2317  0777                     l1602:
  2318  0777  1C37               	btfss	___flmul@prod+3,0
  2319  0778  2F7A               	goto	u2151
  2320  0779  2F7B               	goto	u2150
  2321  077A                     u2151:
  2322  077A  2F9A               	goto	l1608
  2323  077B                     u2150:
  2324  077B                     l1604:
  2325  077B  0834               	movf	___flmul@prod,w
  2326  077C  00A8               	movwf	??___flmul
  2327  077D  0835               	movf	___flmul@prod+1,w
  2328  077E  00A9               	movwf	??___flmul+1
  2329  077F  0836               	movf	___flmul@prod+2,w
  2330  0780  00AA               	movwf	??___flmul+2
  2331  0781  0837               	movf	___flmul@prod+3,w
  2332  0782  00AB               	movwf	??___flmul+3
  2333  0783  3001               	movlw	1
  2334  0784  00AC               	movwf	??___flmul+4
  2335  0785                     u2165:
  2336  0785  0D2B               	rlf	??___flmul+3,w
  2337  0786  0CAB               	rrf	??___flmul+3,f
  2338  0787  0CAA               	rrf	??___flmul+2,f
  2339  0788  0CA9               	rrf	??___flmul+1,f
  2340  0789  0CA8               	rrf	??___flmul,f
  2341  078A                     u2160:
  2342  078A  0BAC               	decfsz	??___flmul+4,f
  2343  078B  2F85               	goto	u2165
  2344  078C  082B               	movf	??___flmul+3,w
  2345  078D  00B7               	movwf	___flmul@prod+3
  2346  078E  082A               	movf	??___flmul+2,w
  2347  078F  00B6               	movwf	___flmul@prod+2
  2348  0790  0829               	movf	??___flmul+1,w
  2349  0791  00B5               	movwf	___flmul@prod+1
  2350  0792  0828               	movf	??___flmul,w
  2351  0793  00B4               	movwf	___flmul@prod
  2352  0794                     l1606:
  2353  0794  3001               	movlw	1
  2354  0795  07B8               	addwf	___flmul@temp,f
  2355  0796  1803               	skipnc
  2356  0797  0AB9               	incf	___flmul@temp+1,f
  2357  0798  3000               	movlw	0
  2358  0799  07B9               	addwf	___flmul@temp+1,f
  2359  079A                     l1608:
  2360  079A  0839               	movf	___flmul@temp+1,w
  2361  079B  3A80               	xorlw	128
  2362  079C  00FF               	movwf	btemp+1
  2363  079D  3080               	movlw	128
  2364  079E  027F               	subwf	btemp+1,w
  2365  079F  1D03               	skipz
  2366  07A0  2FA3               	goto	u2175
  2367  07A1  30FF               	movlw	255
  2368  07A2  0238               	subwf	___flmul@temp,w
  2369  07A3                     u2175:
  2370  07A3  1C03               	skipc
  2371  07A4  2FA6               	goto	u2171
  2372  07A5  2FA7               	goto	u2170
  2373  07A6                     u2171:
  2374  07A6  2FB2               	goto	l1612
  2375  07A7                     u2170:
  2376  07A7                     l1610:
  2377  07A7  307F               	movlw	127
  2378  07A8  1283               	bcf	3,5	;RP0=0, select bank0
  2379  07A9  1303               	bcf	3,6	;RP1=0, select bank0
  2380  07AA  00B7               	movwf	___flmul@prod+3
  2381  07AB  3080               	movlw	128
  2382  07AC  00B6               	movwf	___flmul@prod+2
  2383  07AD  3000               	movlw	0
  2384  07AE  00B5               	movwf	___flmul@prod+1
  2385  07AF  3000               	movlw	0
  2386  07B0  00B4               	movwf	___flmul@prod
  2387  07B1  2FE7               	goto	l561
  2388  07B2                     l1612:
  2389  07B2  1283               	bcf	3,5	;RP0=0, select bank0
  2390  07B3  1303               	bcf	3,6	;RP1=0, select bank0
  2391  07B4  0839               	movf	___flmul@temp+1,w
  2392  07B5  3A80               	xorlw	128
  2393  07B6  00FF               	movwf	btemp+1
  2394  07B7  3080               	movlw	128
  2395  07B8  027F               	subwf	btemp+1,w
  2396  07B9  1D03               	skipz
  2397  07BA  2FBD               	goto	u2185
  2398  07BB  3001               	movlw	1
  2399  07BC  0238               	subwf	___flmul@temp,w
  2400  07BD                     u2185:
  2401  07BD  1803               	skipnc
  2402  07BE  2FC0               	goto	u2181
  2403  07BF  2FC1               	goto	u2180
  2404  07C0                     u2181:
  2405  07C0  2FCD               	goto	l1618
  2406  07C1                     u2180:
  2407  07C1                     l1614:
  2408  07C1  3000               	movlw	0
  2409  07C2  1283               	bcf	3,5	;RP0=0, select bank0
  2410  07C3  1303               	bcf	3,6	;RP1=0, select bank0
  2411  07C4  00B7               	movwf	___flmul@prod+3
  2412  07C5  3000               	movlw	0
  2413  07C6  00B6               	movwf	___flmul@prod+2
  2414  07C7  3000               	movlw	0
  2415  07C8  00B5               	movwf	___flmul@prod+1
  2416  07C9  3000               	movlw	0
  2417  07CA  00B4               	movwf	___flmul@prod
  2418  07CB                     l1616:
  2419  07CB  01AD               	clrf	___flmul@sign
  2420  07CC  2FE7               	goto	l561
  2421  07CD                     l1618:
  2422  07CD  1283               	bcf	3,5	;RP0=0, select bank0
  2423  07CE  1303               	bcf	3,6	;RP1=0, select bank0
  2424  07CF  0838               	movf	___flmul@temp,w
  2425  07D0  00A8               	movwf	??___flmul
  2426  07D1  0828               	movf	??___flmul,w
  2427  07D2  00B3               	movwf	___flmul@bexp
  2428  07D3  30FF               	movlw	255
  2429  07D4  05B4               	andwf	___flmul@prod,f
  2430  07D5  30FF               	movlw	255
  2431  07D6  05B5               	andwf	___flmul@prod+1,f
  2432  07D7  307F               	movlw	127
  2433  07D8  05B6               	andwf	___flmul@prod+2,f
  2434  07D9  3000               	movlw	0
  2435  07DA  05B7               	andwf	___flmul@prod+3,f
  2436  07DB                     l1620:
  2437  07DB  1C33               	btfss	___flmul@bexp,0
  2438  07DC  2FDE               	goto	u2191
  2439  07DD  2FDF               	goto	u2190
  2440  07DE                     u2191:
  2441  07DE  2FE0               	goto	l1624
  2442  07DF                     u2190:
  2443  07DF                     l1622:
  2444  07DF  17B6               	bsf	___flmul@prod+2,7
  2445  07E0                     l1624:
  2446  07E0  0833               	movf	___flmul@bexp,w
  2447  07E1  00A8               	movwf	??___flmul
  2448  07E2  1003               	clrc
  2449  07E3  0C28               	rrf	??___flmul,w
  2450  07E4  00A9               	movwf	??___flmul+1
  2451  07E5  0829               	movf	??___flmul+1,w
  2452  07E6  00B7               	movwf	___flmul@prod+3
  2453  07E7                     l561:
  2454  07E7  082D               	movf	___flmul@sign,w
  2455  07E8  00A8               	movwf	??___flmul
  2456  07E9  0828               	movf	??___flmul,w
  2457  07EA  04B7               	iorwf	___flmul@prod+3,f
  2458  07EB                     l1626:
  2459  07EB  0837               	movf	___flmul@prod+3,w
  2460  07EC  00A3               	movwf	?___flmul+3
  2461  07ED  0836               	movf	___flmul@prod+2,w
  2462  07EE  00A2               	movwf	?___flmul+2
  2463  07EF  0835               	movf	___flmul@prod+1,w
  2464  07F0  00A1               	movwf	?___flmul+1
  2465  07F1  0834               	movf	___flmul@prod,w
  2466  07F2  00A0               	movwf	?___flmul
  2467  07F3                     l549:
  2468  07F3  0008               	return
  2469  07F4                     __end_of___flmul:
  2470                           
  2471                           	psect	text5
  2472  0DD2                     __ptext5:	
  2473 ;; *************** function __Umul8_16 *****************
  2474 ;; Defined at:
  2475 ;;		line 4 in file "C:\Program Files\Microchip\xc8\v2.32\pic\sources\c90\common\Umul8_16.c"
  2476 ;; Parameters:    Size  Location     Type
  2477 ;;  multiplier      1    wreg     unsigned char 
  2478 ;;  multiplicand    1    0[COMMON] unsigned char 
  2479 ;; Auto vars:     Size  Location     Type
  2480 ;;  multiplier      1    8[COMMON] unsigned char 
  2481 ;;  word_mpld       2    6[COMMON] unsigned int 
  2482 ;;  product         2    4[COMMON] unsigned int 
  2483 ;; Return value:  Size  Location     Type
  2484 ;;                  2    0[COMMON] unsigned int 
  2485 ;; Registers used:
  2486 ;;		wreg, status,2, status,0
  2487 ;; Tracked objects:
  2488 ;;		On entry : 0/0
  2489 ;;		On exit  : 0/0
  2490 ;;		Unchanged: 0/0
  2491 ;; Data sizes:     COMMON   BANK0   BANK1   BANK3   BANK2
  2492 ;;      Params:         2       0       0       0       0
  2493 ;;      Locals:         5       0       0       0       0
  2494 ;;      Temps:          2       0       0       0       0
  2495 ;;      Totals:         9       0       0       0       0
  2496 ;;Total ram usage:        9 bytes
  2497 ;; Hardware stack levels used: 1
  2498 ;; This function calls:
  2499 ;;		Nothing
  2500 ;; This function is called by:
  2501 ;;		___flmul
  2502 ;; This function uses a non-reentrant model
  2503 ;;
  2504                           
  2505                           
  2506                           ;psect for function __Umul8_16
  2507  0DD2                     __Umul8_16:
  2508                           
  2509                           ;incstack = 0
  2510                           ; Regs used in __Umul8_16: [wreg+status,2+status,0]
  2511                           ;__Umul8_16@multiplier stored from wreg
  2512  0DD2  00F8               	movwf	__Umul8_16@multiplier
  2513  0DD3                     l1296:
  2514  0DD3  01F4               	clrf	__Umul8_16@product
  2515  0DD4  01F5               	clrf	__Umul8_16@product+1
  2516  0DD5                     l1298:
  2517  0DD5  0870               	movf	__Umul8_16@multiplicand,w
  2518  0DD6  00F2               	movwf	??__Umul8_16
  2519  0DD7  01F3               	clrf	??__Umul8_16+1
  2520  0DD8  0872               	movf	??__Umul8_16,w
  2521  0DD9  00F6               	movwf	__Umul8_16@word_mpld
  2522  0DDA  0873               	movf	??__Umul8_16+1,w
  2523  0DDB  00F7               	movwf	__Umul8_16@word_mpld+1
  2524  0DDC                     l1300:
  2525  0DDC  1C78               	btfss	__Umul8_16@multiplier,0
  2526  0DDD  2DDF               	goto	u1411
  2527  0DDE  2DE0               	goto	u1410
  2528  0DDF                     u1411:
  2529  0DDF  2DE6               	goto	l568
  2530  0DE0                     u1410:
  2531  0DE0                     l1302:
  2532  0DE0  0876               	movf	__Umul8_16@word_mpld,w
  2533  0DE1  07F4               	addwf	__Umul8_16@product,f
  2534  0DE2  1803               	skipnc
  2535  0DE3  0AF5               	incf	__Umul8_16@product+1,f
  2536  0DE4  0877               	movf	__Umul8_16@word_mpld+1,w
  2537  0DE5  07F5               	addwf	__Umul8_16@product+1,f
  2538  0DE6                     l568:
  2539  0DE6  3001               	movlw	1
  2540  0DE7                     u1425:
  2541  0DE7  1003               	clrc
  2542  0DE8  0DF6               	rlf	__Umul8_16@word_mpld,f
  2543  0DE9  0DF7               	rlf	__Umul8_16@word_mpld+1,f
  2544  0DEA  3EFF               	addlw	-1
  2545  0DEB  1D03               	skipz
  2546  0DEC  2DE7               	goto	u1425
  2547  0DED  1003               	clrc
  2548  0DEE  0CF8               	rrf	__Umul8_16@multiplier,f
  2549  0DEF                     l1304:
  2550  0DEF  0878               	movf	__Umul8_16@multiplier,w
  2551  0DF0  1D03               	btfss	3,2
  2552  0DF1  2DF3               	goto	u1431
  2553  0DF2  2DF4               	goto	u1430
  2554  0DF3                     u1431:
  2555  0DF3  2DDC               	goto	l1300
  2556  0DF4                     u1430:
  2557  0DF4                     l1306:
  2558  0DF4  0875               	movf	__Umul8_16@product+1,w
  2559  0DF5  00F1               	movwf	?__Umul8_16+1
  2560  0DF6  0874               	movf	__Umul8_16@product,w
  2561  0DF7  00F0               	movwf	?__Umul8_16
  2562  0DF8                     l570:
  2563  0DF8  0008               	return
  2564  0DF9                     __end_of__Umul8_16:
  2565                           
  2566                           	psect	text6
  2567  02B6                     __ptext6:	
  2568 ;; *************** function ___fldiv *****************
  2569 ;; Defined at:
  2570 ;;		line 8 in file "C:\Program Files\Microchip\xc8\v2.32\pic\sources\c90\common\sprcdiv.c"
  2571 ;; Parameters:    Size  Location     Type
  2572 ;;  a               4   26[BANK0 ] unsigned int 
  2573 ;;  b               4   30[BANK0 ] unsigned int 
  2574 ;; Auto vars:     Size  Location     Type
  2575 ;;  grs             4   46[BANK0 ] unsigned long 
  2576 ;;  rem             4   39[BANK0 ] unsigned long 
  2577 ;;  new_exp         2   44[BANK0 ] int 
  2578 ;;  aexp            1   51[BANK0 ] unsigned char 
  2579 ;;  bexp            1   50[BANK0 ] unsigned char 
  2580 ;;  sign            1   43[BANK0 ] unsigned char 
  2581 ;; Return value:  Size  Location     Type
  2582 ;;                  4   26[BANK0 ] unsigned char 
  2583 ;; Registers used:
  2584 ;;		wreg, status,2, status,0, btemp+1
  2585 ;; Tracked objects:
  2586 ;;		On entry : 0/0
  2587 ;;		On exit  : 0/0
  2588 ;;		Unchanged: 0/0
  2589 ;; Data sizes:     COMMON   BANK0   BANK1   BANK3   BANK2
  2590 ;;      Params:         0       8       0       0       0
  2591 ;;      Locals:         0      13       0       0       0
  2592 ;;      Temps:          0       5       0       0       0
  2593 ;;      Totals:         0      26       0       0       0
  2594 ;;Total ram usage:       26 bytes
  2595 ;; Hardware stack levels used: 1
  2596 ;; This function calls:
  2597 ;;		Nothing
  2598 ;; This function is called by:
  2599 ;;		_voltage
  2600 ;; This function uses a non-reentrant model
  2601 ;;
  2602                           
  2603                           
  2604                           ;psect for function ___fldiv
  2605  02B6                     ___fldiv:
  2606  02B6                     l1348:	
  2607                           ;incstack = 0
  2608                           ; Regs used in ___fldiv: [wreg+status,2+status,0+btemp+1]
  2609                           
  2610  02B6  1283               	bcf	3,5	;RP0=0, select bank0
  2611  02B7  1303               	bcf	3,6	;RP1=0, select bank0
  2612  02B8  0841               	movf	___fldiv@b+3,w
  2613  02B9  3980               	andlw	128
  2614  02BA  00C2               	movwf	??___fldiv
  2615  02BB  0842               	movf	??___fldiv,w
  2616  02BC  00CB               	movwf	___fldiv@sign
  2617  02BD                     l1350:
  2618  02BD  0841               	movf	___fldiv@b+3,w
  2619  02BE  00C2               	movwf	??___fldiv
  2620  02BF  0742               	addwf	??___fldiv,w
  2621  02C0  00C3               	movwf	??___fldiv+1
  2622  02C1  0843               	movf	??___fldiv+1,w
  2623  02C2  00D2               	movwf	___fldiv@bexp
  2624  02C3                     l1352:
  2625  02C3  1FC0               	btfss	___fldiv@b+2,7
  2626  02C4  2AC6               	goto	u1541
  2627  02C5  2AC7               	goto	u1540
  2628  02C6                     u1541:
  2629  02C6  2AC8               	goto	l1356
  2630  02C7                     u1540:
  2631  02C7                     l1354:
  2632  02C7  1452               	bsf	___fldiv@bexp,0
  2633  02C8                     l1356:
  2634  02C8  0852               	movf	___fldiv@bexp,w
  2635  02C9  1903               	btfsc	3,2
  2636  02CA  2ACC               	goto	u1551
  2637  02CB  2ACD               	goto	u1550
  2638  02CC                     u1551:
  2639  02CC  2ADD               	goto	l1366
  2640  02CD                     u1550:
  2641  02CD                     l1358:
  2642  02CD  0A52               	incf	___fldiv@bexp,w
  2643  02CE  1D03               	btfss	3,2
  2644  02CF  2AD1               	goto	u1561
  2645  02D0  2AD2               	goto	u1560
  2646  02D1                     u1561:
  2647  02D1  2ADA               	goto	l1362
  2648  02D2                     u1560:
  2649  02D2                     l1360:
  2650  02D2  3000               	movlw	0
  2651  02D3  00C1               	movwf	___fldiv@b+3
  2652  02D4  3000               	movlw	0
  2653  02D5  00C0               	movwf	___fldiv@b+2
  2654  02D6  3000               	movlw	0
  2655  02D7  00BF               	movwf	___fldiv@b+1
  2656  02D8  3000               	movlw	0
  2657  02D9  00BE               	movwf	___fldiv@b
  2658  02DA                     l1362:
  2659  02DA  17C0               	bsf	___fldiv@b+2,7
  2660  02DB                     l1364:
  2661  02DB  01C1               	clrf	___fldiv@b+3
  2662  02DC  2AE5               	goto	l1368
  2663  02DD                     l1366:
  2664  02DD  3000               	movlw	0
  2665  02DE  00C1               	movwf	___fldiv@b+3
  2666  02DF  3000               	movlw	0
  2667  02E0  00C0               	movwf	___fldiv@b+2
  2668  02E1  3000               	movlw	0
  2669  02E2  00BF               	movwf	___fldiv@b+1
  2670  02E3  3000               	movlw	0
  2671  02E4  00BE               	movwf	___fldiv@b
  2672  02E5                     l1368:
  2673  02E5  083D               	movf	___fldiv@a+3,w
  2674  02E6  3980               	andlw	128
  2675  02E7  00C2               	movwf	??___fldiv
  2676  02E8  0842               	movf	??___fldiv,w
  2677  02E9  06CB               	xorwf	___fldiv@sign,f
  2678  02EA                     l1370:
  2679  02EA  083D               	movf	___fldiv@a+3,w
  2680  02EB  00C2               	movwf	??___fldiv
  2681  02EC  0742               	addwf	??___fldiv,w
  2682  02ED  00C3               	movwf	??___fldiv+1
  2683  02EE  0843               	movf	??___fldiv+1,w
  2684  02EF  00D3               	movwf	___fldiv@aexp
  2685  02F0                     l1372:
  2686  02F0  1FBC               	btfss	___fldiv@a+2,7
  2687  02F1  2AF3               	goto	u1571
  2688  02F2  2AF4               	goto	u1570
  2689  02F3                     u1571:
  2690  02F3  2AF5               	goto	l1376
  2691  02F4                     u1570:
  2692  02F4                     l1374:
  2693  02F4  1453               	bsf	___fldiv@aexp,0
  2694  02F5                     l1376:
  2695  02F5  0853               	movf	___fldiv@aexp,w
  2696  02F6  1903               	btfsc	3,2
  2697  02F7  2AF9               	goto	u1581
  2698  02F8  2AFA               	goto	u1580
  2699  02F9                     u1581:
  2700  02F9  2B0A               	goto	l1386
  2701  02FA                     u1580:
  2702  02FA                     l1378:
  2703  02FA  0A53               	incf	___fldiv@aexp,w
  2704  02FB  1D03               	btfss	3,2
  2705  02FC  2AFE               	goto	u1591
  2706  02FD  2AFF               	goto	u1590
  2707  02FE                     u1591:
  2708  02FE  2B07               	goto	l1382
  2709  02FF                     u1590:
  2710  02FF                     l1380:
  2711  02FF  3000               	movlw	0
  2712  0300  00BD               	movwf	___fldiv@a+3
  2713  0301  3000               	movlw	0
  2714  0302  00BC               	movwf	___fldiv@a+2
  2715  0303  3000               	movlw	0
  2716  0304  00BB               	movwf	___fldiv@a+1
  2717  0305  3000               	movlw	0
  2718  0306  00BA               	movwf	___fldiv@a
  2719  0307                     l1382:
  2720  0307  17BC               	bsf	___fldiv@a+2,7
  2721  0308                     l1384:
  2722  0308  01BD               	clrf	___fldiv@a+3
  2723  0309  2B12               	goto	l509
  2724  030A                     l1386:
  2725  030A  3000               	movlw	0
  2726  030B  00BD               	movwf	___fldiv@a+3
  2727  030C  3000               	movlw	0
  2728  030D  00BC               	movwf	___fldiv@a+2
  2729  030E  3000               	movlw	0
  2730  030F  00BB               	movwf	___fldiv@a+1
  2731  0310  3000               	movlw	0
  2732  0311  00BA               	movwf	___fldiv@a
  2733  0312                     l509:
  2734  0312  083D               	movf	___fldiv@a+3,w
  2735  0313  043C               	iorwf	___fldiv@a+2,w
  2736  0314  043B               	iorwf	___fldiv@a+1,w
  2737  0315  043A               	iorwf	___fldiv@a,w
  2738  0316  1D03               	skipz
  2739  0317  2B19               	goto	u1601
  2740  0318  2B1A               	goto	u1600
  2741  0319                     u1601:
  2742  0319  2B33               	goto	l1396
  2743  031A                     u1600:
  2744  031A                     l1388:
  2745  031A  3000               	movlw	0
  2746  031B  00C1               	movwf	___fldiv@b+3
  2747  031C  3000               	movlw	0
  2748  031D  00C0               	movwf	___fldiv@b+2
  2749  031E  3000               	movlw	0
  2750  031F  00BF               	movwf	___fldiv@b+1
  2751  0320  3000               	movlw	0
  2752  0321  00BE               	movwf	___fldiv@b
  2753  0322  3080               	movlw	128
  2754  0323  04C0               	iorwf	___fldiv@b+2,f
  2755  0324  307F               	movlw	127
  2756  0325  04C1               	iorwf	___fldiv@b+3,f
  2757  0326                     l1390:
  2758  0326  084B               	movf	___fldiv@sign,w
  2759  0327  00C2               	movwf	??___fldiv
  2760  0328  0842               	movf	??___fldiv,w
  2761  0329  04C1               	iorwf	___fldiv@b+3,f
  2762  032A                     l1392:
  2763  032A  0841               	movf	___fldiv@b+3,w
  2764  032B  00BD               	movwf	?___fldiv+3
  2765  032C  0840               	movf	___fldiv@b+2,w
  2766  032D  00BC               	movwf	?___fldiv+2
  2767  032E  083F               	movf	___fldiv@b+1,w
  2768  032F  00BB               	movwf	?___fldiv+1
  2769  0330  083E               	movf	___fldiv@b,w
  2770  0331  00BA               	movwf	?___fldiv
  2771  0332  2C92               	goto	l511
  2772  0333                     l1396:
  2773  0333  0852               	movf	___fldiv@bexp,w
  2774  0334  1D03               	btfss	3,2
  2775  0335  2B37               	goto	u1611
  2776  0336  2B38               	goto	u1610
  2777  0337                     u1611:
  2778  0337  2B41               	goto	l1402
  2779  0338                     u1610:
  2780  0338                     l1398:
  2781  0338  3000               	movlw	0
  2782  0339  00BD               	movwf	?___fldiv+3
  2783  033A  3000               	movlw	0
  2784  033B  00BC               	movwf	?___fldiv+2
  2785  033C  3000               	movlw	0
  2786  033D  00BB               	movwf	?___fldiv+1
  2787  033E  3000               	movlw	0
  2788  033F  00BA               	movwf	?___fldiv
  2789  0340  2C92               	goto	l511
  2790  0341                     l1402:
  2791  0341  0852               	movf	___fldiv@bexp,w
  2792  0342  00C2               	movwf	??___fldiv
  2793  0343  01C3               	clrf	??___fldiv+1
  2794  0344  0843               	movf	??___fldiv+1,w
  2795  0345  00C5               	movwf	??___fldiv+3
  2796  0346  0853               	movf	___fldiv@aexp,w
  2797  0347  0242               	subwf	??___fldiv,w
  2798  0348  00C4               	movwf	??___fldiv+2
  2799  0349  1C03               	skipc
  2800  034A  03C5               	decf	??___fldiv+3,f
  2801  034B  0844               	movf	??___fldiv+2,w
  2802  034C  3E7F               	addlw	127
  2803  034D  00CC               	movwf	___fldiv@new_exp
  2804  034E  0845               	movf	??___fldiv+3,w
  2805  034F  1803               	skipnc
  2806  0350  3E01               	addlw	1
  2807  0351  3E00               	addlw	0
  2808  0352  00CD               	movwf	___fldiv@new_exp+1
  2809  0353                     l1404:
  2810  0353  0841               	movf	___fldiv@b+3,w
  2811  0354  00CA               	movwf	___fldiv@rem+3
  2812  0355  0840               	movf	___fldiv@b+2,w
  2813  0356  00C9               	movwf	___fldiv@rem+2
  2814  0357  083F               	movf	___fldiv@b+1,w
  2815  0358  00C8               	movwf	___fldiv@rem+1
  2816  0359  083E               	movf	___fldiv@b,w
  2817  035A  00C7               	movwf	___fldiv@rem
  2818  035B                     l1406:
  2819  035B  3000               	movlw	0
  2820  035C  00C1               	movwf	___fldiv@b+3
  2821  035D  3000               	movlw	0
  2822  035E  00C0               	movwf	___fldiv@b+2
  2823  035F  3000               	movlw	0
  2824  0360  00BF               	movwf	___fldiv@b+1
  2825  0361  3000               	movlw	0
  2826  0362  00BE               	movwf	___fldiv@b
  2827  0363                     l1408:
  2828  0363  3000               	movlw	0
  2829  0364  00D1               	movwf	___fldiv@grs+3
  2830  0365  3000               	movlw	0
  2831  0366  00D0               	movwf	___fldiv@grs+2
  2832  0367  3000               	movlw	0
  2833  0368  00CF               	movwf	___fldiv@grs+1
  2834  0369  3000               	movlw	0
  2835  036A  00CE               	movwf	___fldiv@grs
  2836  036B                     l1410:
  2837  036B  01D3               	clrf	___fldiv@aexp
  2838  036C  2BB7               	goto	l1430
  2839  036D                     l1412:
  2840  036D  0853               	movf	___fldiv@aexp,w
  2841  036E  1903               	btfsc	3,2
  2842  036F  2B71               	goto	u1621
  2843  0370  2B72               	goto	u1620
  2844  0371                     u1621:
  2845  0371  2B92               	goto	l1422
  2846  0372                     u1620:
  2847  0372                     l1414:
  2848  0372  3001               	movlw	1
  2849  0373  00C2               	movwf	??___fldiv
  2850  0374                     u1635:
  2851  0374  1003               	clrc
  2852  0375  0DC7               	rlf	___fldiv@rem,f
  2853  0376  0DC8               	rlf	___fldiv@rem+1,f
  2854  0377  0DC9               	rlf	___fldiv@rem+2,f
  2855  0378  0DCA               	rlf	___fldiv@rem+3,f
  2856  0379  0BC2               	decfsz	??___fldiv,f
  2857  037A  2B74               	goto	u1635
  2858  037B  3001               	movlw	1
  2859  037C  00C2               	movwf	??___fldiv
  2860  037D                     u1645:
  2861  037D  1003               	clrc
  2862  037E  0DBE               	rlf	___fldiv@b,f
  2863  037F  0DBF               	rlf	___fldiv@b+1,f
  2864  0380  0DC0               	rlf	___fldiv@b+2,f
  2865  0381  0DC1               	rlf	___fldiv@b+3,f
  2866  0382  0BC2               	decfsz	??___fldiv,f
  2867  0383  2B7D               	goto	u1645
  2868  0384                     l1416:
  2869  0384  1FD1               	btfss	___fldiv@grs+3,7
  2870  0385  2B87               	goto	u1651
  2871  0386  2B88               	goto	u1650
  2872  0387                     u1651:
  2873  0387  2B89               	goto	l1420
  2874  0388                     u1650:
  2875  0388                     l1418:
  2876  0388  143E               	bsf	___fldiv@b,0
  2877  0389                     l1420:
  2878  0389  3001               	movlw	1
  2879  038A  00C2               	movwf	??___fldiv
  2880  038B                     u1665:
  2881  038B  1003               	clrc
  2882  038C  0DCE               	rlf	___fldiv@grs,f
  2883  038D  0DCF               	rlf	___fldiv@grs+1,f
  2884  038E  0DD0               	rlf	___fldiv@grs+2,f
  2885  038F  0DD1               	rlf	___fldiv@grs+3,f
  2886  0390  0BC2               	decfsz	??___fldiv,f
  2887  0391  2B8B               	goto	u1665
  2888  0392                     l1422:
  2889  0392  083D               	movf	___fldiv@a+3,w
  2890  0393  024A               	subwf	___fldiv@rem+3,w
  2891  0394  1D03               	skipz
  2892  0395  2BA0               	goto	u1675
  2893  0396  083C               	movf	___fldiv@a+2,w
  2894  0397  0249               	subwf	___fldiv@rem+2,w
  2895  0398  1D03               	skipz
  2896  0399  2BA0               	goto	u1675
  2897  039A  083B               	movf	___fldiv@a+1,w
  2898  039B  0248               	subwf	___fldiv@rem+1,w
  2899  039C  1D03               	skipz
  2900  039D  2BA0               	goto	u1675
  2901  039E  083A               	movf	___fldiv@a,w
  2902  039F  0247               	subwf	___fldiv@rem,w
  2903  03A0                     u1675:
  2904  03A0  1C03               	skipc
  2905  03A1  2BA3               	goto	u1671
  2906  03A2  2BA4               	goto	u1670
  2907  03A3                     u1671:
  2908  03A3  2BB3               	goto	l1428
  2909  03A4                     u1670:
  2910  03A4                     l1424:
  2911  03A4  1751               	bsf	___fldiv@grs+3,6
  2912  03A5                     l1426:
  2913  03A5  083A               	movf	___fldiv@a,w
  2914  03A6  02C7               	subwf	___fldiv@rem,f
  2915  03A7  083B               	movf	___fldiv@a+1,w
  2916  03A8  1C03               	skipc
  2917  03A9  0F3B               	incfsz	___fldiv@a+1,w
  2918  03AA  02C8               	subwf	___fldiv@rem+1,f
  2919  03AB  083C               	movf	___fldiv@a+2,w
  2920  03AC  1C03               	skipc
  2921  03AD  0F3C               	incfsz	___fldiv@a+2,w
  2922  03AE  02C9               	subwf	___fldiv@rem+2,f
  2923  03AF  083D               	movf	___fldiv@a+3,w
  2924  03B0  1C03               	skipc
  2925  03B1  0F3D               	incfsz	___fldiv@a+3,w
  2926  03B2  02CA               	subwf	___fldiv@rem+3,f
  2927  03B3                     l1428:
  2928  03B3  3001               	movlw	1
  2929  03B4  00C2               	movwf	??___fldiv
  2930  03B5  0842               	movf	??___fldiv,w
  2931  03B6  07D3               	addwf	___fldiv@aexp,f
  2932  03B7                     l1430:
  2933  03B7  301A               	movlw	26
  2934  03B8  0253               	subwf	___fldiv@aexp,w
  2935  03B9  1C03               	skipc
  2936  03BA  2BBC               	goto	u1681
  2937  03BB  2BBD               	goto	u1680
  2938  03BC                     u1681:
  2939  03BC  2B6D               	goto	l1412
  2940  03BD                     u1680:
  2941  03BD                     l1432:
  2942  03BD  084A               	movf	___fldiv@rem+3,w
  2943  03BE  0449               	iorwf	___fldiv@rem+2,w
  2944  03BF  0448               	iorwf	___fldiv@rem+1,w
  2945  03C0  0447               	iorwf	___fldiv@rem,w
  2946  03C1  1903               	skipnz
  2947  03C2  2BC4               	goto	u1691
  2948  03C3  2BC5               	goto	u1690
  2949  03C4                     u1691:
  2950  03C4  2BE4               	goto	l1446
  2951  03C5                     u1690:
  2952  03C5                     l1434:
  2953  03C5  144E               	bsf	___fldiv@grs,0
  2954  03C6  2BE4               	goto	l1446
  2955  03C7                     l1436:
  2956  03C7  3001               	movlw	1
  2957  03C8  00C2               	movwf	??___fldiv
  2958  03C9                     u1705:
  2959  03C9  1003               	clrc
  2960  03CA  0DBE               	rlf	___fldiv@b,f
  2961  03CB  0DBF               	rlf	___fldiv@b+1,f
  2962  03CC  0DC0               	rlf	___fldiv@b+2,f
  2963  03CD  0DC1               	rlf	___fldiv@b+3,f
  2964  03CE  0BC2               	decfsz	??___fldiv,f
  2965  03CF  2BC9               	goto	u1705
  2966  03D0                     l1438:
  2967  03D0  1FD1               	btfss	___fldiv@grs+3,7
  2968  03D1  2BD3               	goto	u1711
  2969  03D2  2BD4               	goto	u1710
  2970  03D3                     u1711:
  2971  03D3  2BD5               	goto	l1442
  2972  03D4                     u1710:
  2973  03D4                     l1440:
  2974  03D4  143E               	bsf	___fldiv@b,0
  2975  03D5                     l1442:
  2976  03D5  3001               	movlw	1
  2977  03D6  00C2               	movwf	??___fldiv
  2978  03D7                     u1725:
  2979  03D7  1003               	clrc
  2980  03D8  0DCE               	rlf	___fldiv@grs,f
  2981  03D9  0DCF               	rlf	___fldiv@grs+1,f
  2982  03DA  0DD0               	rlf	___fldiv@grs+2,f
  2983  03DB  0DD1               	rlf	___fldiv@grs+3,f
  2984  03DC  0BC2               	decfsz	??___fldiv,f
  2985  03DD  2BD7               	goto	u1725
  2986  03DE                     l1444:
  2987  03DE  30FF               	movlw	255
  2988  03DF  07CC               	addwf	___fldiv@new_exp,f
  2989  03E0  1803               	skipnc
  2990  03E1  0ACD               	incf	___fldiv@new_exp+1,f
  2991  03E2  30FF               	movlw	255
  2992  03E3  07CD               	addwf	___fldiv@new_exp+1,f
  2993  03E4                     l1446:
  2994  03E4  1FC0               	btfss	___fldiv@b+2,7
  2995  03E5  2BE7               	goto	u1731
  2996  03E6  2BE8               	goto	u1730
  2997  03E7                     u1731:
  2998  03E7  2BC7               	goto	l1436
  2999  03E8                     u1730:
  3000  03E8                     l1448:
  3001  03E8  01D3               	clrf	___fldiv@aexp
  3002  03E9                     l1450:
  3003  03E9  1FD1               	btfss	___fldiv@grs+3,7
  3004  03EA  2BEC               	goto	u1741
  3005  03EB  2BED               	goto	u1740
  3006  03EC                     u1741:
  3007  03EC  2C09               	goto	l1458
  3008  03ED                     u1740:
  3009  03ED                     l1452:
  3010  03ED  30FF               	movlw	255
  3011  03EE  054E               	andwf	___fldiv@grs,w
  3012  03EF  00C2               	movwf	??___fldiv
  3013  03F0  30FF               	movlw	255
  3014  03F1  054F               	andwf	___fldiv@grs+1,w
  3015  03F2  00C3               	movwf	??___fldiv+1
  3016  03F3  30FF               	movlw	255
  3017  03F4  0550               	andwf	___fldiv@grs+2,w
  3018  03F5  00C4               	movwf	??___fldiv+2
  3019  03F6  307F               	movlw	127
  3020  03F7  0551               	andwf	___fldiv@grs+3,w
  3021  03F8  00C5               	movwf	??___fldiv+3
  3022  03F9  0845               	movf	??___fldiv+3,w
  3023  03FA  0444               	iorwf	??___fldiv+2,w
  3024  03FB  0443               	iorwf	??___fldiv+1,w
  3025  03FC  0442               	iorwf	??___fldiv,w
  3026  03FD  1903               	skipnz
  3027  03FE  2C00               	goto	u1751
  3028  03FF  2C01               	goto	u1750
  3029  0400                     u1751:
  3030  0400  2C04               	goto	l525
  3031  0401                     u1750:
  3032  0401                     l1454:
  3033  0401  01D3               	clrf	___fldiv@aexp
  3034  0402  0AD3               	incf	___fldiv@aexp,f
  3035  0403  2C09               	goto	l1458
  3036  0404                     l525:
  3037  0404  1C3E               	btfss	___fldiv@b,0
  3038  0405  2C07               	goto	u1761
  3039  0406  2C08               	goto	u1760
  3040  0407                     u1761:
  3041  0407  2C09               	goto	l1458
  3042  0408                     u1760:
  3043  0408  2C01               	goto	l1454
  3044  0409                     l1458:
  3045  0409  0853               	movf	___fldiv@aexp,w
  3046  040A  1903               	btfsc	3,2
  3047  040B  2C0D               	goto	u1771
  3048  040C  2C0E               	goto	u1770
  3049  040D                     u1771:
  3050  040D  2C3F               	goto	l1468
  3051  040E                     u1770:
  3052  040E                     l1460:
  3053  040E  3001               	movlw	1
  3054  040F  07BE               	addwf	___fldiv@b,f
  3055  0410  3000               	movlw	0
  3056  0411  1803               	skipnc
  3057  0412  3001               	movlw	1
  3058  0413  07BF               	addwf	___fldiv@b+1,f
  3059  0414  3000               	movlw	0
  3060  0415  1803               	skipnc
  3061  0416  3001               	movlw	1
  3062  0417  07C0               	addwf	___fldiv@b+2,f
  3063  0418  3000               	movlw	0
  3064  0419  1803               	skipnc
  3065  041A  3001               	movlw	1
  3066  041B  07C1               	addwf	___fldiv@b+3,f
  3067  041C                     l1462:
  3068  041C  1C41               	btfss	___fldiv@b+3,0
  3069  041D  2C1F               	goto	u1781
  3070  041E  2C20               	goto	u1780
  3071  041F                     u1781:
  3072  041F  2C3F               	goto	l1468
  3073  0420                     u1780:
  3074  0420                     l1464:
  3075  0420  083E               	movf	___fldiv@b,w
  3076  0421  00C2               	movwf	??___fldiv
  3077  0422  083F               	movf	___fldiv@b+1,w
  3078  0423  00C3               	movwf	??___fldiv+1
  3079  0424  0840               	movf	___fldiv@b+2,w
  3080  0425  00C4               	movwf	??___fldiv+2
  3081  0426  0841               	movf	___fldiv@b+3,w
  3082  0427  00C5               	movwf	??___fldiv+3
  3083  0428  3001               	movlw	1
  3084  0429  00C6               	movwf	??___fldiv+4
  3085  042A                     u1795:
  3086  042A  0D45               	rlf	??___fldiv+3,w
  3087  042B  0CC5               	rrf	??___fldiv+3,f
  3088  042C  0CC4               	rrf	??___fldiv+2,f
  3089  042D  0CC3               	rrf	??___fldiv+1,f
  3090  042E  0CC2               	rrf	??___fldiv,f
  3091  042F                     u1790:
  3092  042F  0BC6               	decfsz	??___fldiv+4,f
  3093  0430  2C2A               	goto	u1795
  3094  0431  0845               	movf	??___fldiv+3,w
  3095  0432  00C1               	movwf	___fldiv@b+3
  3096  0433  0844               	movf	??___fldiv+2,w
  3097  0434  00C0               	movwf	___fldiv@b+2
  3098  0435  0843               	movf	??___fldiv+1,w
  3099  0436  00BF               	movwf	___fldiv@b+1
  3100  0437  0842               	movf	??___fldiv,w
  3101  0438  00BE               	movwf	___fldiv@b
  3102  0439                     l1466:
  3103  0439  3001               	movlw	1
  3104  043A  07CC               	addwf	___fldiv@new_exp,f
  3105  043B  1803               	skipnc
  3106  043C  0ACD               	incf	___fldiv@new_exp+1,f
  3107  043D  3000               	movlw	0
  3108  043E  07CD               	addwf	___fldiv@new_exp+1,f
  3109  043F                     l1468:
  3110  043F  084D               	movf	___fldiv@new_exp+1,w
  3111  0440  3A80               	xorlw	128
  3112  0441  00FF               	movwf	btemp+1
  3113  0442  3080               	movlw	128
  3114  0443  027F               	subwf	btemp+1,w
  3115  0444  1D03               	skipz
  3116  0445  2C48               	goto	u1805
  3117  0446  30FF               	movlw	255
  3118  0447  024C               	subwf	___fldiv@new_exp,w
  3119  0448                     u1805:
  3120  0448  1C03               	skipc
  3121  0449  2C4B               	goto	u1801
  3122  044A  2C4C               	goto	u1800
  3123  044B                     u1801:
  3124  044B  2C5A               	goto	l1472
  3125  044C                     u1800:
  3126  044C                     l1470:
  3127  044C  30FF               	movlw	255
  3128  044D  1283               	bcf	3,5	;RP0=0, select bank0
  3129  044E  1303               	bcf	3,6	;RP1=0, select bank0
  3130  044F  00CC               	movwf	___fldiv@new_exp
  3131  0450  3000               	movlw	0
  3132  0451  00CD               	movwf	___fldiv@new_exp+1
  3133  0452  3000               	movlw	0
  3134  0453  00C1               	movwf	___fldiv@b+3
  3135  0454  3000               	movlw	0
  3136  0455  00C0               	movwf	___fldiv@b+2
  3137  0456  3000               	movlw	0
  3138  0457  00BF               	movwf	___fldiv@b+1
  3139  0458  3000               	movlw	0
  3140  0459  00BE               	movwf	___fldiv@b
  3141  045A                     l1472:
  3142  045A  1283               	bcf	3,5	;RP0=0, select bank0
  3143  045B  1303               	bcf	3,6	;RP1=0, select bank0
  3144  045C  084D               	movf	___fldiv@new_exp+1,w
  3145  045D  3A80               	xorlw	128
  3146  045E  00FF               	movwf	btemp+1
  3147  045F  3080               	movlw	128
  3148  0460  027F               	subwf	btemp+1,w
  3149  0461  1D03               	skipz
  3150  0462  2C65               	goto	u1815
  3151  0463  3001               	movlw	1
  3152  0464  024C               	subwf	___fldiv@new_exp,w
  3153  0465                     u1815:
  3154  0465  1803               	skipnc
  3155  0466  2C68               	goto	u1811
  3156  0467  2C69               	goto	u1810
  3157  0468                     u1811:
  3158  0468  2C76               	goto	l531
  3159  0469                     u1810:
  3160  0469                     l1474:
  3161  0469  1283               	bcf	3,5	;RP0=0, select bank0
  3162  046A  1303               	bcf	3,6	;RP1=0, select bank0
  3163  046B  01CC               	clrf	___fldiv@new_exp
  3164  046C  01CD               	clrf	___fldiv@new_exp+1
  3165  046D                     l1476:
  3166  046D  3000               	movlw	0
  3167  046E  00C1               	movwf	___fldiv@b+3
  3168  046F  3000               	movlw	0
  3169  0470  00C0               	movwf	___fldiv@b+2
  3170  0471  3000               	movlw	0
  3171  0472  00BF               	movwf	___fldiv@b+1
  3172  0473  3000               	movlw	0
  3173  0474  00BE               	movwf	___fldiv@b
  3174  0475                     l1478:
  3175  0475  01CB               	clrf	___fldiv@sign
  3176  0476                     l531:
  3177  0476  1283               	bcf	3,5	;RP0=0, select bank0
  3178  0477  1303               	bcf	3,6	;RP1=0, select bank0
  3179  0478  084C               	movf	___fldiv@new_exp,w
  3180  0479  00C2               	movwf	??___fldiv
  3181  047A  0842               	movf	??___fldiv,w
  3182  047B  00D2               	movwf	___fldiv@bexp
  3183  047C                     l1480:
  3184  047C  1C52               	btfss	___fldiv@bexp,0
  3185  047D  2C7F               	goto	u1821
  3186  047E  2C80               	goto	u1820
  3187  047F                     u1821:
  3188  047F  2C82               	goto	l1484
  3189  0480                     u1820:
  3190  0480                     l1482:
  3191  0480  17C0               	bsf	___fldiv@b+2,7
  3192  0481  2C86               	goto	l533
  3193  0482                     l1484:
  3194  0482  307F               	movlw	127
  3195  0483  00C2               	movwf	??___fldiv
  3196  0484  0842               	movf	??___fldiv,w
  3197  0485  05C0               	andwf	___fldiv@b+2,f
  3198  0486                     l533:
  3199  0486  0852               	movf	___fldiv@bexp,w
  3200  0487  00C2               	movwf	??___fldiv
  3201  0488  1003               	clrc
  3202  0489  0C42               	rrf	??___fldiv,w
  3203  048A  00C3               	movwf	??___fldiv+1
  3204  048B  0843               	movf	??___fldiv+1,w
  3205  048C  00C1               	movwf	___fldiv@b+3
  3206  048D  084B               	movf	___fldiv@sign,w
  3207  048E  00C2               	movwf	??___fldiv
  3208  048F  0842               	movf	??___fldiv,w
  3209  0490  04C1               	iorwf	___fldiv@b+3,f
  3210  0491  2B2A               	goto	l1392
  3211  0492                     l511:
  3212  0492  0008               	return
  3213  0493                     __end_of___fldiv:
  3214                           
  3215                           	psect	text7
  3216  0F78                     __ptext7:	
  3217 ;; *************** function _adc *****************
  3218 ;; Defined at:
  3219 ;;		line 62 in file "ADC TO FIND VOLTAGE.c"
  3220 ;; Parameters:    Size  Location     Type
  3221 ;;		None
  3222 ;; Auto vars:     Size  Location     Type
  3223 ;;		None
  3224 ;; Return value:  Size  Location     Type
  3225 ;;                  1    wreg      void 
  3226 ;; Registers used:
  3227 ;;		wreg, status,2, status,0, pclath, cstack
  3228 ;; Tracked objects:
  3229 ;;		On entry : 0/0
  3230 ;;		On exit  : 0/0
  3231 ;;		Unchanged: 0/0
  3232 ;; Data sizes:     COMMON   BANK0   BANK1   BANK3   BANK2
  3233 ;;      Params:         0       0       0       0       0
  3234 ;;      Locals:         0       0       0       0       0
  3235 ;;      Temps:          2       0       0       0       0
  3236 ;;      Totals:         2       0       0       0       0
  3237 ;;Total ram usage:        2 bytes
  3238 ;; Hardware stack levels used: 1
  3239 ;; Hardware stack levels required when called: 3
  3240 ;; This function calls:
  3241 ;;		_LCD
  3242 ;;		_display
  3243 ;; This function is called by:
  3244 ;;		_main
  3245 ;; This function uses a non-reentrant model
  3246 ;;
  3247                           
  3248                           
  3249                           ;psect for function _adc
  3250  0F78                     _adc:
  3251  0F78                     l1674:	
  3252                           ;incstack = 0
  3253                           ; Regs used in _adc: [wreg+status,2+status,0+pclath+cstack]
  3254                           
  3255                           
  3256                           ;ADC TO FIND VOLTAGE.c: 64:     LCD(0X80,0);
  3257  0F78  3080               	movlw	128
  3258  0F79  00F1               	movwf	LCD@g
  3259  0F7A  3000               	movlw	0
  3260  0F7B  00F2               	movwf	LCD@g+1
  3261  0F7C  3000               	movlw	0
  3262  0F7D  00F3               	movwf	LCD@h
  3263  0F7E  00F4               	movwf	LCD@h+1
  3264  0F7F  120A  118A  2013  120A  158A  	fcall	_LCD
  3265  0F84                     l1676:
  3266                           
  3267                           ;ADC TO FIND VOLTAGE.c: 65: ADCON0=0X81;
  3268  0F84  3081               	movlw	129
  3269  0F85  1283               	bcf	3,5	;RP0=0, select bank0
  3270  0F86  1303               	bcf	3,6	;RP1=0, select bank0
  3271  0F87  009F               	movwf	31	;volatile
  3272  0F88                     l1678:
  3273                           
  3274                           ;ADC TO FIND VOLTAGE.c: 66: GO=1;
  3275  0F88  149F               	bsf	31,1	;volatile
  3276  0F89                     l64:	
  3277                           ;ADC TO FIND VOLTAGE.c: 67: while(GO);
  3278                           
  3279  0F89  189F               	btfsc	31,1	;volatile
  3280  0F8A  2F8C               	goto	u2341
  3281  0F8B  2F8D               	goto	u2340
  3282  0F8C                     u2341:
  3283  0F8C  2F89               	goto	l64
  3284  0F8D                     u2340:
  3285  0F8D                     l1680:
  3286                           
  3287                           ;ADC TO FIND VOLTAGE.c: 68: high=ADRESH;
  3288  0F8D  081E               	movf	30,w	;volatile
  3289  0F8E  00FC               	movwf	??_adc
  3290  0F8F  01FD               	clrf	??_adc+1
  3291  0F90  087C               	movf	??_adc,w
  3292  0F91  00E4               	movwf	_high
  3293  0F92  087D               	movf	??_adc+1,w
  3294  0F93  00E5               	movwf	_high+1
  3295                           
  3296                           ;ADC TO FIND VOLTAGE.c: 69: low=ADRESL;
  3297  0F94  1683               	bsf	3,5	;RP0=1, select bank1
  3298  0F95  1303               	bcf	3,6	;RP1=0, select bank1
  3299  0F96  081E               	movf	30,w	;volatile
  3300  0F97  00FC               	movwf	??_adc
  3301  0F98  01FD               	clrf	??_adc+1
  3302  0F99  087C               	movf	??_adc,w
  3303  0F9A  1283               	bcf	3,5	;RP0=0, select bank0
  3304  0F9B  1303               	bcf	3,6	;RP1=0, select bank0
  3305  0F9C  00E2               	movwf	_low
  3306  0F9D  087D               	movf	??_adc+1,w
  3307  0F9E  00E3               	movwf	_low+1
  3308  0F9F                     l1682:
  3309                           
  3310                           ;ADC TO FIND VOLTAGE.c: 70: if(high==0)
  3311  0F9F  0864               	movf	_high,w
  3312  0FA0  0465               	iorwf	_high+1,w
  3313  0FA1  1D03               	btfss	3,2
  3314  0FA2  2FA4               	goto	u2351
  3315  0FA3  2FA5               	goto	u2350
  3316  0FA4                     u2351:
  3317  0FA4  2FB2               	goto	l1688
  3318  0FA5                     u2350:
  3319  0FA5                     l1684:
  3320                           
  3321                           ;ADC TO FIND VOLTAGE.c: 71: {;ADC TO FIND VOLTAGE.c: 72: DV=low;
  3322  0FA5  0863               	movf	_low+1,w
  3323  0FA6  00E1               	movwf	_DV+1
  3324  0FA7  0862               	movf	_low,w
  3325  0FA8  00E0               	movwf	_DV
  3326  0FA9                     l1686:
  3327                           
  3328                           ;ADC TO FIND VOLTAGE.c: 73: display(DV);
  3329  0FA9  0861               	movf	_DV+1,w
  3330  0FAA  00A5               	movwf	display@k+1
  3331  0FAB  0860               	movf	_DV,w
  3332  0FAC  00A4               	movwf	display@k
  3333  0FAD  120A  118A  2025  120A  158A  	fcall	_display
  3334  0FB2                     l1688:
  3335                           
  3336                           ;ADC TO FIND VOLTAGE.c: 75: if(high==1)
  3337  0FB2  1283               	bcf	3,5	;RP0=0, select bank0
  3338  0FB3  1303               	bcf	3,6	;RP1=0, select bank0
  3339  0FB4  0364               	decf	_high,w
  3340  0FB5  0465               	iorwf	_high+1,w
  3341  0FB6  1D03               	btfss	3,2
  3342  0FB7  2FB9               	goto	u2361
  3343  0FB8  2FBA               	goto	u2360
  3344  0FB9                     u2361:
  3345  0FB9  2FCB               	goto	l1694
  3346  0FBA                     u2360:
  3347  0FBA                     l1690:
  3348                           
  3349                           ;ADC TO FIND VOLTAGE.c: 76: {;ADC TO FIND VOLTAGE.c: 77:  DV=low+256;
  3350  0FBA  0862               	movf	_low,w
  3351  0FBB  3E00               	addlw	0
  3352  0FBC  00E0               	movwf	_DV
  3353  0FBD  0863               	movf	_low+1,w
  3354  0FBE  1803               	skipnc
  3355  0FBF  3E01               	addlw	1
  3356  0FC0  3E01               	addlw	1
  3357  0FC1  00E1               	movwf	_DV+1
  3358  0FC2                     l1692:
  3359                           
  3360                           ;ADC TO FIND VOLTAGE.c: 78:  display(DV);
  3361  0FC2  0861               	movf	_DV+1,w
  3362  0FC3  00A5               	movwf	display@k+1
  3363  0FC4  0860               	movf	_DV,w
  3364  0FC5  00A4               	movwf	display@k
  3365  0FC6  120A  118A  2025  120A  158A  	fcall	_display
  3366  0FCB                     l1694:
  3367                           
  3368                           ;ADC TO FIND VOLTAGE.c: 80: if(high==2)
  3369  0FCB  3002               	movlw	2
  3370  0FCC  1283               	bcf	3,5	;RP0=0, select bank0
  3371  0FCD  1303               	bcf	3,6	;RP1=0, select bank0
  3372  0FCE  0664               	xorwf	_high,w
  3373  0FCF  0465               	iorwf	_high+1,w
  3374  0FD0  1D03               	btfss	3,2
  3375  0FD1  2FD3               	goto	u2371
  3376  0FD2  2FD4               	goto	u2370
  3377  0FD3                     u2371:
  3378  0FD3  2FE5               	goto	l1700
  3379  0FD4                     u2370:
  3380  0FD4                     l1696:
  3381                           
  3382                           ;ADC TO FIND VOLTAGE.c: 81: {;ADC TO FIND VOLTAGE.c: 82: DV=low+512;
  3383  0FD4  0862               	movf	_low,w
  3384  0FD5  3E00               	addlw	0
  3385  0FD6  00E0               	movwf	_DV
  3386  0FD7  0863               	movf	_low+1,w
  3387  0FD8  1803               	skipnc
  3388  0FD9  3E01               	addlw	1
  3389  0FDA  3E02               	addlw	2
  3390  0FDB  00E1               	movwf	_DV+1
  3391  0FDC                     l1698:
  3392                           
  3393                           ;ADC TO FIND VOLTAGE.c: 83: display(DV);
  3394  0FDC  0861               	movf	_DV+1,w
  3395  0FDD  00A5               	movwf	display@k+1
  3396  0FDE  0860               	movf	_DV,w
  3397  0FDF  00A4               	movwf	display@k
  3398  0FE0  120A  118A  2025  120A  158A  	fcall	_display
  3399  0FE5                     l1700:
  3400                           
  3401                           ;ADC TO FIND VOLTAGE.c: 85: if( high==3)
  3402  0FE5  3003               	movlw	3
  3403  0FE6  1283               	bcf	3,5	;RP0=0, select bank0
  3404  0FE7  1303               	bcf	3,6	;RP1=0, select bank0
  3405  0FE8  0664               	xorwf	_high,w
  3406  0FE9  0465               	iorwf	_high+1,w
  3407  0FEA  1D03               	btfss	3,2
  3408  0FEB  2FED               	goto	u2381
  3409  0FEC  2FEE               	goto	u2380
  3410  0FED                     u2381:
  3411  0FED  2FFF               	goto	l71
  3412  0FEE                     u2380:
  3413  0FEE                     l1702:
  3414                           
  3415                           ;ADC TO FIND VOLTAGE.c: 86: {;ADC TO FIND VOLTAGE.c: 87:  DV=low+768;
  3416  0FEE  0862               	movf	_low,w
  3417  0FEF  3E00               	addlw	0
  3418  0FF0  00E0               	movwf	_DV
  3419  0FF1  0863               	movf	_low+1,w
  3420  0FF2  1803               	skipnc
  3421  0FF3  3E01               	addlw	1
  3422  0FF4  3E03               	addlw	3
  3423  0FF5  00E1               	movwf	_DV+1
  3424  0FF6                     l1704:
  3425                           
  3426                           ;ADC TO FIND VOLTAGE.c: 88:  display(DV);
  3427  0FF6  0861               	movf	_DV+1,w
  3428  0FF7  00A5               	movwf	display@k+1
  3429  0FF8  0860               	movf	_DV,w
  3430  0FF9  00A4               	movwf	display@k
  3431  0FFA  120A  118A  2025  120A  158A  	fcall	_display
  3432  0FFF                     l71:
  3433  0FFF  0008               	return
  3434  1000                     __end_of_adc:
  3435                           
  3436                           	psect	text8
  3437  0025                     __ptext8:	
  3438 ;; *************** function _display *****************
  3439 ;; Defined at:
  3440 ;;		line 50 in file "ADC TO FIND VOLTAGE.c"
  3441 ;; Parameters:    Size  Location     Type
  3442 ;;  k               2    4[BANK0 ] int 
  3443 ;; Auto vars:     Size  Location     Type
  3444 ;;  d               2   12[BANK0 ] int 
  3445 ;;  c               2   10[BANK0 ] int 
  3446 ;;  b               2    8[BANK0 ] int 
  3447 ;;  a               2    6[BANK0 ] int 
  3448 ;; Return value:  Size  Location     Type
  3449 ;;                  1    wreg      void 
  3450 ;; Registers used:
  3451 ;;		wreg, status,2, status,0, pclath, cstack
  3452 ;; Tracked objects:
  3453 ;;		On entry : 0/0
  3454 ;;		On exit  : 0/0
  3455 ;;		Unchanged: 0/0
  3456 ;; Data sizes:     COMMON   BANK0   BANK1   BANK3   BANK2
  3457 ;;      Params:         0       2       0       0       0
  3458 ;;      Locals:         0       8       0       0       0
  3459 ;;      Temps:          0       0       0       0       0
  3460 ;;      Totals:         0      10       0       0       0
  3461 ;;Total ram usage:       10 bytes
  3462 ;; Hardware stack levels used: 1
  3463 ;; Hardware stack levels required when called: 2
  3464 ;; This function calls:
  3465 ;;		_LCD
  3466 ;;		___awdiv
  3467 ;;		___awmod
  3468 ;; This function is called by:
  3469 ;;		_adc
  3470 ;; This function uses a non-reentrant model
  3471 ;;
  3472                           
  3473                           
  3474                           ;psect for function _display
  3475  0025                     _display:
  3476  0025                     l1310:	
  3477                           ;incstack = 0
  3478                           ; Regs used in _display: [wreg+status,2+status,0+pclath+cstack]
  3479                           
  3480                           
  3481                           ;ADC TO FIND VOLTAGE.c: 50: void display(int k);ADC TO FIND VOLTAGE.c: 51: {;ADC TO FIND
      +                           VOLTAGE.c: 52:     int a,b,c,d;;ADC TO FIND VOLTAGE.c: 53:     a=k/1000;
  3482  0025  30E8               	movlw	232
  3483  0026  00F7               	movwf	___awdiv@divisor
  3484  0027  3003               	movlw	3
  3485  0028  00F8               	movwf	___awdiv@divisor+1
  3486  0029  1283               	bcf	3,5	;RP0=0, select bank0
  3487  002A  1303               	bcf	3,6	;RP1=0, select bank0
  3488  002B  0825               	movf	display@k+1,w
  3489  002C  00FA               	movwf	___awdiv@dividend+1
  3490  002D  0824               	movf	display@k,w
  3491  002E  00F9               	movwf	___awdiv@dividend
  3492  002F  120A  158A  2693  120A  118A  	fcall	___awdiv
  3493  0034  0878               	movf	?___awdiv+1,w
  3494  0035  1283               	bcf	3,5	;RP0=0, select bank0
  3495  0036  1303               	bcf	3,6	;RP1=0, select bank0
  3496  0037  00A7               	movwf	display@a+1
  3497  0038  0877               	movf	?___awdiv,w
  3498  0039  00A6               	movwf	display@a
  3499                           
  3500                           ;ADC TO FIND VOLTAGE.c: 54:     b=(k%1000)/100;
  3501  003A  3064               	movlw	100
  3502  003B  00F7               	movwf	___awdiv@divisor
  3503  003C  3000               	movlw	0
  3504  003D  00F8               	movwf	___awdiv@divisor+1
  3505  003E  0825               	movf	display@k+1,w
  3506  003F  00F3               	movwf	___awmod@dividend+1
  3507  0040  0824               	movf	display@k,w
  3508  0041  00F2               	movwf	___awmod@dividend
  3509  0042  30E8               	movlw	232
  3510  0043  00F0               	movwf	___awmod@divisor
  3511  0044  3003               	movlw	3
  3512  0045  00F1               	movwf	___awmod@divisor+1
  3513  0046  120A  158A  263A  120A  118A  	fcall	___awmod
  3514  004B  0871               	movf	?___awmod+1,w
  3515  004C  00FA               	movwf	___awdiv@dividend+1
  3516  004D  0870               	movf	?___awmod,w
  3517  004E  00F9               	movwf	___awdiv@dividend
  3518  004F  120A  158A  2693  120A  118A  	fcall	___awdiv
  3519  0054  0878               	movf	?___awdiv+1,w
  3520  0055  1283               	bcf	3,5	;RP0=0, select bank0
  3521  0056  1303               	bcf	3,6	;RP1=0, select bank0
  3522  0057  00A9               	movwf	display@b+1
  3523  0058  0877               	movf	?___awdiv,w
  3524  0059  00A8               	movwf	display@b
  3525                           
  3526                           ;ADC TO FIND VOLTAGE.c: 55:     c=(k%100)/10;
  3527  005A  300A               	movlw	10
  3528  005B  00F7               	movwf	___awdiv@divisor
  3529  005C  3000               	movlw	0
  3530  005D  00F8               	movwf	___awdiv@divisor+1
  3531  005E  0825               	movf	display@k+1,w
  3532  005F  00F3               	movwf	___awmod@dividend+1
  3533  0060  0824               	movf	display@k,w
  3534  0061  00F2               	movwf	___awmod@dividend
  3535  0062  3064               	movlw	100
  3536  0063  00F0               	movwf	___awmod@divisor
  3537  0064  3000               	movlw	0
  3538  0065  00F1               	movwf	___awmod@divisor+1
  3539  0066  120A  158A  263A  120A  118A  	fcall	___awmod
  3540  006B  0871               	movf	?___awmod+1,w
  3541  006C  00FA               	movwf	___awdiv@dividend+1
  3542  006D  0870               	movf	?___awmod,w
  3543  006E  00F9               	movwf	___awdiv@dividend
  3544  006F  120A  158A  2693  120A  118A  	fcall	___awdiv
  3545  0074  0878               	movf	?___awdiv+1,w
  3546  0075  1283               	bcf	3,5	;RP0=0, select bank0
  3547  0076  1303               	bcf	3,6	;RP1=0, select bank0
  3548  0077  00AB               	movwf	display@c+1
  3549  0078  0877               	movf	?___awdiv,w
  3550  0079  00AA               	movwf	display@c
  3551                           
  3552                           ;ADC TO FIND VOLTAGE.c: 56:     d=k%10;
  3553  007A  300A               	movlw	10
  3554  007B  00F0               	movwf	___awmod@divisor
  3555  007C  3000               	movlw	0
  3556  007D  00F1               	movwf	___awmod@divisor+1
  3557  007E  0825               	movf	display@k+1,w
  3558  007F  00F3               	movwf	___awmod@dividend+1
  3559  0080  0824               	movf	display@k,w
  3560  0081  00F2               	movwf	___awmod@dividend
  3561  0082  120A  158A  263A  120A  118A  	fcall	___awmod
  3562  0087  0871               	movf	?___awmod+1,w
  3563  0088  1283               	bcf	3,5	;RP0=0, select bank0
  3564  0089  1303               	bcf	3,6	;RP1=0, select bank0
  3565  008A  00AD               	movwf	display@d+1
  3566  008B  0870               	movf	?___awmod,w
  3567  008C  00AC               	movwf	display@d
  3568                           
  3569                           ;ADC TO FIND VOLTAGE.c: 57:     LCD(0x30+a,1);
  3570  008D  0826               	movf	display@a,w
  3571  008E  3E30               	addlw	48
  3572  008F  00F1               	movwf	LCD@g
  3573  0090  0827               	movf	display@a+1,w
  3574  0091  1803               	skipnc
  3575  0092  3E01               	addlw	1
  3576  0093  3E00               	addlw	0
  3577  0094  00F2               	movwf	LCD@g+1
  3578  0095  3001               	movlw	1
  3579  0096  00F3               	movwf	LCD@h
  3580  0097  3000               	movlw	0
  3581  0098  00F4               	movwf	LCD@h+1
  3582  0099  120A  118A  2013  120A  118A  	fcall	_LCD
  3583                           
  3584                           ;ADC TO FIND VOLTAGE.c: 58:     LCD(0x30+b,1);
  3585  009E  1283               	bcf	3,5	;RP0=0, select bank0
  3586  009F  1303               	bcf	3,6	;RP1=0, select bank0
  3587  00A0  0828               	movf	display@b,w
  3588  00A1  3E30               	addlw	48
  3589  00A2  00F1               	movwf	LCD@g
  3590  00A3  0829               	movf	display@b+1,w
  3591  00A4  1803               	skipnc
  3592  00A5  3E01               	addlw	1
  3593  00A6  3E00               	addlw	0
  3594  00A7  00F2               	movwf	LCD@g+1
  3595  00A8  3001               	movlw	1
  3596  00A9  00F3               	movwf	LCD@h
  3597  00AA  3000               	movlw	0
  3598  00AB  00F4               	movwf	LCD@h+1
  3599  00AC  120A  118A  2013  120A  118A  	fcall	_LCD
  3600                           
  3601                           ;ADC TO FIND VOLTAGE.c: 59:     LCD(0x30+c,1);
  3602  00B1  1283               	bcf	3,5	;RP0=0, select bank0
  3603  00B2  1303               	bcf	3,6	;RP1=0, select bank0
  3604  00B3  082A               	movf	display@c,w
  3605  00B4  3E30               	addlw	48
  3606  00B5  00F1               	movwf	LCD@g
  3607  00B6  082B               	movf	display@c+1,w
  3608  00B7  1803               	skipnc
  3609  00B8  3E01               	addlw	1
  3610  00B9  3E00               	addlw	0
  3611  00BA  00F2               	movwf	LCD@g+1
  3612  00BB  3001               	movlw	1
  3613  00BC  00F3               	movwf	LCD@h
  3614  00BD  3000               	movlw	0
  3615  00BE  00F4               	movwf	LCD@h+1
  3616  00BF  120A  118A  2013  120A  118A  	fcall	_LCD
  3617                           
  3618                           ;ADC TO FIND VOLTAGE.c: 60:     LCD(0x30+d,1);
  3619  00C4  1283               	bcf	3,5	;RP0=0, select bank0
  3620  00C5  1303               	bcf	3,6	;RP1=0, select bank0
  3621  00C6  082C               	movf	display@d,w
  3622  00C7  3E30               	addlw	48
  3623  00C8  00F1               	movwf	LCD@g
  3624  00C9  082D               	movf	display@d+1,w
  3625  00CA  1803               	skipnc
  3626  00CB  3E01               	addlw	1
  3627  00CC  3E00               	addlw	0
  3628  00CD  00F2               	movwf	LCD@g+1
  3629  00CE  3001               	movlw	1
  3630  00CF  00F3               	movwf	LCD@h
  3631  00D0  3000               	movlw	0
  3632  00D1  00F4               	movwf	LCD@h+1
  3633  00D2  120A  118A  2013  120A  118A  	fcall	_LCD
  3634  00D7                     l61:
  3635  00D7  0008               	return
  3636  00D8                     __end_of_display:
  3637                           
  3638                           	psect	text9
  3639  0E3A                     __ptext9:	
  3640 ;; *************** function ___awmod *****************
  3641 ;; Defined at:
  3642 ;;		line 5 in file "C:\Program Files\Microchip\xc8\v2.32\pic\sources\c90\common\awmod.c"
  3643 ;; Parameters:    Size  Location     Type
  3644 ;;  divisor         2    0[COMMON] int 
  3645 ;;  dividend        2    2[COMMON] int 
  3646 ;; Auto vars:     Size  Location     Type
  3647 ;;  sign            1    6[COMMON] unsigned char 
  3648 ;;  counter         1    5[COMMON] unsigned char 
  3649 ;; Return value:  Size  Location     Type
  3650 ;;                  2    0[COMMON] int 
  3651 ;; Registers used:
  3652 ;;		wreg, status,2, status,0
  3653 ;; Tracked objects:
  3654 ;;		On entry : 0/0
  3655 ;;		On exit  : 0/0
  3656 ;;		Unchanged: 0/0
  3657 ;; Data sizes:     COMMON   BANK0   BANK1   BANK3   BANK2
  3658 ;;      Params:         4       0       0       0       0
  3659 ;;      Locals:         2       0       0       0       0
  3660 ;;      Temps:          1       0       0       0       0
  3661 ;;      Totals:         7       0       0       0       0
  3662 ;;Total ram usage:        7 bytes
  3663 ;; Hardware stack levels used: 1
  3664 ;; This function calls:
  3665 ;;		Nothing
  3666 ;; This function is called by:
  3667 ;;		_display
  3668 ;;		_voltage
  3669 ;; This function uses a non-reentrant model
  3670 ;;
  3671                           
  3672                           
  3673                           ;psect for function ___awmod
  3674  0E3A                     ___awmod:
  3675  0E3A                     l1258:	
  3676                           ;incstack = 0
  3677                           ; Regs used in ___awmod: [wreg+status,2+status,0]
  3678                           
  3679  0E3A  01F6               	clrf	___awmod@sign
  3680  0E3B                     l1260:
  3681  0E3B  1FF3               	btfss	___awmod@dividend+1,7
  3682  0E3C  2E3E               	goto	u1321
  3683  0E3D  2E3F               	goto	u1320
  3684  0E3E                     u1321:
  3685  0E3E  2E46               	goto	l1266
  3686  0E3F                     u1320:
  3687  0E3F                     l1262:
  3688  0E3F  09F2               	comf	___awmod@dividend,f
  3689  0E40  09F3               	comf	___awmod@dividend+1,f
  3690  0E41  0AF2               	incf	___awmod@dividend,f
  3691  0E42  1903               	skipnz
  3692  0E43  0AF3               	incf	___awmod@dividend+1,f
  3693  0E44                     l1264:
  3694  0E44  01F6               	clrf	___awmod@sign
  3695  0E45  0AF6               	incf	___awmod@sign,f
  3696  0E46                     l1266:
  3697  0E46  1FF1               	btfss	___awmod@divisor+1,7
  3698  0E47  2E49               	goto	u1331
  3699  0E48  2E4A               	goto	u1330
  3700  0E49                     u1331:
  3701  0E49  2E4F               	goto	l1270
  3702  0E4A                     u1330:
  3703  0E4A                     l1268:
  3704  0E4A  09F0               	comf	___awmod@divisor,f
  3705  0E4B  09F1               	comf	___awmod@divisor+1,f
  3706  0E4C  0AF0               	incf	___awmod@divisor,f
  3707  0E4D  1903               	skipnz
  3708  0E4E  0AF1               	incf	___awmod@divisor+1,f
  3709  0E4F                     l1270:
  3710  0E4F  0870               	movf	___awmod@divisor,w
  3711  0E50  0471               	iorwf	___awmod@divisor+1,w
  3712  0E51  1903               	btfsc	3,2
  3713  0E52  2E54               	goto	u1341
  3714  0E53  2E55               	goto	u1340
  3715  0E54                     u1341:
  3716  0E54  2E84               	goto	l1288
  3717  0E55                     u1340:
  3718  0E55                     l1272:
  3719  0E55  01F5               	clrf	___awmod@counter
  3720  0E56  0AF5               	incf	___awmod@counter,f
  3721  0E57  2E63               	goto	l1278
  3722  0E58                     l1274:
  3723  0E58  3001               	movlw	1
  3724  0E59                     u1355:
  3725  0E59  1003               	clrc
  3726  0E5A  0DF0               	rlf	___awmod@divisor,f
  3727  0E5B  0DF1               	rlf	___awmod@divisor+1,f
  3728  0E5C  3EFF               	addlw	-1
  3729  0E5D  1D03               	skipz
  3730  0E5E  2E59               	goto	u1355
  3731  0E5F                     l1276:
  3732  0E5F  3001               	movlw	1
  3733  0E60  00F4               	movwf	??___awmod
  3734  0E61  0874               	movf	??___awmod,w
  3735  0E62  07F5               	addwf	___awmod@counter,f
  3736  0E63                     l1278:
  3737  0E63  1FF1               	btfss	___awmod@divisor+1,7
  3738  0E64  2E66               	goto	u1361
  3739  0E65  2E67               	goto	u1360
  3740  0E66                     u1361:
  3741  0E66  2E58               	goto	l1274
  3742  0E67                     u1360:
  3743  0E67                     l1280:
  3744  0E67  0871               	movf	___awmod@divisor+1,w
  3745  0E68  0273               	subwf	___awmod@dividend+1,w
  3746  0E69  1D03               	skipz
  3747  0E6A  2E6D               	goto	u1375
  3748  0E6B  0870               	movf	___awmod@divisor,w
  3749  0E6C  0272               	subwf	___awmod@dividend,w
  3750  0E6D                     u1375:
  3751  0E6D  1C03               	skipc
  3752  0E6E  2E70               	goto	u1371
  3753  0E6F  2E71               	goto	u1370
  3754  0E70                     u1371:
  3755  0E70  2E77               	goto	l1284
  3756  0E71                     u1370:
  3757  0E71                     l1282:
  3758  0E71  0870               	movf	___awmod@divisor,w
  3759  0E72  02F2               	subwf	___awmod@dividend,f
  3760  0E73  0871               	movf	___awmod@divisor+1,w
  3761  0E74  1C03               	skipc
  3762  0E75  03F3               	decf	___awmod@dividend+1,f
  3763  0E76  02F3               	subwf	___awmod@dividend+1,f
  3764  0E77                     l1284:
  3765  0E77  3001               	movlw	1
  3766  0E78                     u1385:
  3767  0E78  1003               	clrc
  3768  0E79  0CF1               	rrf	___awmod@divisor+1,f
  3769  0E7A  0CF0               	rrf	___awmod@divisor,f
  3770  0E7B  3EFF               	addlw	-1
  3771  0E7C  1D03               	skipz
  3772  0E7D  2E78               	goto	u1385
  3773  0E7E                     l1286:
  3774  0E7E  3001               	movlw	1
  3775  0E7F  02F5               	subwf	___awmod@counter,f
  3776  0E80  1D03               	btfss	3,2
  3777  0E81  2E83               	goto	u1391
  3778  0E82  2E84               	goto	u1390
  3779  0E83                     u1391:
  3780  0E83  2E67               	goto	l1280
  3781  0E84                     u1390:
  3782  0E84                     l1288:
  3783  0E84  0876               	movf	___awmod@sign,w
  3784  0E85  1903               	btfsc	3,2
  3785  0E86  2E88               	goto	u1401
  3786  0E87  2E89               	goto	u1400
  3787  0E88                     u1401:
  3788  0E88  2E8E               	goto	l1292
  3789  0E89                     u1400:
  3790  0E89                     l1290:
  3791  0E89  09F2               	comf	___awmod@dividend,f
  3792  0E8A  09F3               	comf	___awmod@dividend+1,f
  3793  0E8B  0AF2               	incf	___awmod@dividend,f
  3794  0E8C  1903               	skipnz
  3795  0E8D  0AF3               	incf	___awmod@dividend+1,f
  3796  0E8E                     l1292:
  3797  0E8E  0873               	movf	___awmod@dividend+1,w
  3798  0E8F  00F1               	movwf	?___awmod+1
  3799  0E90  0872               	movf	___awmod@dividend,w
  3800  0E91  00F0               	movwf	?___awmod
  3801  0E92                     l326:
  3802  0E92  0008               	return
  3803  0E93                     __end_of___awmod:
  3804                           
  3805                           	psect	text10
  3806  0E93                     __ptext10:	
  3807 ;; *************** function ___awdiv *****************
  3808 ;; Defined at:
  3809 ;;		line 5 in file "C:\Program Files\Microchip\xc8\v2.32\pic\sources\c90\common\awdiv.c"
  3810 ;; Parameters:    Size  Location     Type
  3811 ;;  divisor         2    7[COMMON] int 
  3812 ;;  dividend        2    9[COMMON] int 
  3813 ;; Auto vars:     Size  Location     Type
  3814 ;;  quotient        2    2[BANK0 ] int 
  3815 ;;  sign            1    1[BANK0 ] unsigned char 
  3816 ;;  counter         1    0[BANK0 ] unsigned char 
  3817 ;; Return value:  Size  Location     Type
  3818 ;;                  2    7[COMMON] int 
  3819 ;; Registers used:
  3820 ;;		wreg, status,2, status,0
  3821 ;; Tracked objects:
  3822 ;;		On entry : 0/0
  3823 ;;		On exit  : 0/0
  3824 ;;		Unchanged: 0/0
  3825 ;; Data sizes:     COMMON   BANK0   BANK1   BANK3   BANK2
  3826 ;;      Params:         4       0       0       0       0
  3827 ;;      Locals:         0       4       0       0       0
  3828 ;;      Temps:          1       0       0       0       0
  3829 ;;      Totals:         5       4       0       0       0
  3830 ;;Total ram usage:        9 bytes
  3831 ;; Hardware stack levels used: 1
  3832 ;; This function calls:
  3833 ;;		Nothing
  3834 ;; This function is called by:
  3835 ;;		_display
  3836 ;;		_voltage
  3837 ;; This function uses a non-reentrant model
  3838 ;;
  3839                           
  3840                           
  3841                           ;psect for function ___awdiv
  3842  0E93                     ___awdiv:
  3843  0E93                     l1214:	
  3844                           ;incstack = 0
  3845                           ; Regs used in ___awdiv: [wreg+status,2+status,0]
  3846                           
  3847  0E93  1283               	bcf	3,5	;RP0=0, select bank0
  3848  0E94  1303               	bcf	3,6	;RP1=0, select bank0
  3849  0E95  01A1               	clrf	___awdiv@sign
  3850  0E96                     l1216:
  3851  0E96  1FF8               	btfss	___awdiv@divisor+1,7
  3852  0E97  2E99               	goto	u1221
  3853  0E98  2E9A               	goto	u1220
  3854  0E99                     u1221:
  3855  0E99  2EA1               	goto	l1222
  3856  0E9A                     u1220:
  3857  0E9A                     l1218:
  3858  0E9A  09F7               	comf	___awdiv@divisor,f
  3859  0E9B  09F8               	comf	___awdiv@divisor+1,f
  3860  0E9C  0AF7               	incf	___awdiv@divisor,f
  3861  0E9D  1903               	skipnz
  3862  0E9E  0AF8               	incf	___awdiv@divisor+1,f
  3863  0E9F                     l1220:
  3864  0E9F  01A1               	clrf	___awdiv@sign
  3865  0EA0  0AA1               	incf	___awdiv@sign,f
  3866  0EA1                     l1222:
  3867  0EA1  1FFA               	btfss	___awdiv@dividend+1,7
  3868  0EA2  2EA4               	goto	u1231
  3869  0EA3  2EA5               	goto	u1230
  3870  0EA4                     u1231:
  3871  0EA4  2EAE               	goto	l1228
  3872  0EA5                     u1230:
  3873  0EA5                     l1224:
  3874  0EA5  09F9               	comf	___awdiv@dividend,f
  3875  0EA6  09FA               	comf	___awdiv@dividend+1,f
  3876  0EA7  0AF9               	incf	___awdiv@dividend,f
  3877  0EA8  1903               	skipnz
  3878  0EA9  0AFA               	incf	___awdiv@dividend+1,f
  3879  0EAA                     l1226:
  3880  0EAA  3001               	movlw	1
  3881  0EAB  00FB               	movwf	??___awdiv
  3882  0EAC  087B               	movf	??___awdiv,w
  3883  0EAD  06A1               	xorwf	___awdiv@sign,f
  3884  0EAE                     l1228:
  3885  0EAE  01A2               	clrf	___awdiv@quotient
  3886  0EAF  01A3               	clrf	___awdiv@quotient+1
  3887  0EB0                     l1230:
  3888  0EB0  0877               	movf	___awdiv@divisor,w
  3889  0EB1  0478               	iorwf	___awdiv@divisor+1,w
  3890  0EB2  1903               	btfsc	3,2
  3891  0EB3  2EB5               	goto	u1241
  3892  0EB4  2EB6               	goto	u1240
  3893  0EB5                     u1241:
  3894  0EB5  2EED               	goto	l1250
  3895  0EB6                     u1240:
  3896  0EB6                     l1232:
  3897  0EB6  01A0               	clrf	___awdiv@counter
  3898  0EB7  0AA0               	incf	___awdiv@counter,f
  3899  0EB8  2EC4               	goto	l1238
  3900  0EB9                     l1234:
  3901  0EB9  3001               	movlw	1
  3902  0EBA                     u1255:
  3903  0EBA  1003               	clrc
  3904  0EBB  0DF7               	rlf	___awdiv@divisor,f
  3905  0EBC  0DF8               	rlf	___awdiv@divisor+1,f
  3906  0EBD  3EFF               	addlw	-1
  3907  0EBE  1D03               	skipz
  3908  0EBF  2EBA               	goto	u1255
  3909  0EC0                     l1236:
  3910  0EC0  3001               	movlw	1
  3911  0EC1  00FB               	movwf	??___awdiv
  3912  0EC2  087B               	movf	??___awdiv,w
  3913  0EC3  07A0               	addwf	___awdiv@counter,f
  3914  0EC4                     l1238:
  3915  0EC4  1FF8               	btfss	___awdiv@divisor+1,7
  3916  0EC5  2EC7               	goto	u1261
  3917  0EC6  2EC8               	goto	u1260
  3918  0EC7                     u1261:
  3919  0EC7  2EB9               	goto	l1234
  3920  0EC8                     u1260:
  3921  0EC8                     l1240:
  3922  0EC8  3001               	movlw	1
  3923  0EC9                     u1275:
  3924  0EC9  1003               	clrc
  3925  0ECA  0DA2               	rlf	___awdiv@quotient,f
  3926  0ECB  0DA3               	rlf	___awdiv@quotient+1,f
  3927  0ECC  3EFF               	addlw	-1
  3928  0ECD  1D03               	skipz
  3929  0ECE  2EC9               	goto	u1275
  3930  0ECF  0878               	movf	___awdiv@divisor+1,w
  3931  0ED0  027A               	subwf	___awdiv@dividend+1,w
  3932  0ED1  1D03               	skipz
  3933  0ED2  2ED5               	goto	u1285
  3934  0ED3  0877               	movf	___awdiv@divisor,w
  3935  0ED4  0279               	subwf	___awdiv@dividend,w
  3936  0ED5                     u1285:
  3937  0ED5  1C03               	skipc
  3938  0ED6  2ED8               	goto	u1281
  3939  0ED7  2ED9               	goto	u1280
  3940  0ED8                     u1281:
  3941  0ED8  2EE0               	goto	l1246
  3942  0ED9                     u1280:
  3943  0ED9                     l1242:
  3944  0ED9  0877               	movf	___awdiv@divisor,w
  3945  0EDA  02F9               	subwf	___awdiv@dividend,f
  3946  0EDB  0878               	movf	___awdiv@divisor+1,w
  3947  0EDC  1C03               	skipc
  3948  0EDD  03FA               	decf	___awdiv@dividend+1,f
  3949  0EDE  02FA               	subwf	___awdiv@dividend+1,f
  3950  0EDF                     l1244:
  3951  0EDF  1422               	bsf	___awdiv@quotient,0
  3952  0EE0                     l1246:
  3953  0EE0  3001               	movlw	1
  3954  0EE1                     u1295:
  3955  0EE1  1003               	clrc
  3956  0EE2  0CF8               	rrf	___awdiv@divisor+1,f
  3957  0EE3  0CF7               	rrf	___awdiv@divisor,f
  3958  0EE4  3EFF               	addlw	-1
  3959  0EE5  1D03               	skipz
  3960  0EE6  2EE1               	goto	u1295
  3961  0EE7                     l1248:
  3962  0EE7  3001               	movlw	1
  3963  0EE8  02A0               	subwf	___awdiv@counter,f
  3964  0EE9  1D03               	btfss	3,2
  3965  0EEA  2EEC               	goto	u1301
  3966  0EEB  2EED               	goto	u1300
  3967  0EEC                     u1301:
  3968  0EEC  2EC8               	goto	l1240
  3969  0EED                     u1300:
  3970  0EED                     l1250:
  3971  0EED  0821               	movf	___awdiv@sign,w
  3972  0EEE  1903               	btfsc	3,2
  3973  0EEF  2EF1               	goto	u1311
  3974  0EF0  2EF2               	goto	u1310
  3975  0EF1                     u1311:
  3976  0EF1  2EF7               	goto	l1254
  3977  0EF2                     u1310:
  3978  0EF2                     l1252:
  3979  0EF2  09A2               	comf	___awdiv@quotient,f
  3980  0EF3  09A3               	comf	___awdiv@quotient+1,f
  3981  0EF4  0AA2               	incf	___awdiv@quotient,f
  3982  0EF5  1903               	skipnz
  3983  0EF6  0AA3               	incf	___awdiv@quotient+1,f
  3984  0EF7                     l1254:
  3985  0EF7  0823               	movf	___awdiv@quotient+1,w
  3986  0EF8  00F8               	movwf	?___awdiv+1
  3987  0EF9  0822               	movf	___awdiv@quotient,w
  3988  0EFA  00F7               	movwf	?___awdiv
  3989  0EFB                     l313:
  3990  0EFB  0008               	return
  3991  0EFC                     __end_of___awdiv:
  3992                           
  3993                           	psect	text11
  3994  0013                     __ptext11:	
  3995 ;; *************** function _LCD *****************
  3996 ;; Defined at:
  3997 ;;		line 44 in file "ADC TO FIND VOLTAGE.c"
  3998 ;; Parameters:    Size  Location     Type
  3999 ;;  g               2    1[COMMON] int 
  4000 ;;  h               2    3[COMMON] int 
  4001 ;; Auto vars:     Size  Location     Type
  4002 ;;		None
  4003 ;; Return value:  Size  Location     Type
  4004 ;;                  1    wreg      void 
  4005 ;; Registers used:
  4006 ;;		wreg, status,2, status,0, pclath, cstack
  4007 ;; Tracked objects:
  4008 ;;		On entry : 0/0
  4009 ;;		On exit  : 0/0
  4010 ;;		Unchanged: 0/0
  4011 ;; Data sizes:     COMMON   BANK0   BANK1   BANK3   BANK2
  4012 ;;      Params:         4       0       0       0       0
  4013 ;;      Locals:         0       0       0       0       0
  4014 ;;      Temps:          0       0       0       0       0
  4015 ;;      Totals:         4       0       0       0       0
  4016 ;;Total ram usage:        4 bytes
  4017 ;; Hardware stack levels used: 1
  4018 ;; Hardware stack levels required when called: 1
  4019 ;; This function calls:
  4020 ;;		_pulse
  4021 ;; This function is called by:
  4022 ;;		_main
  4023 ;;		_display
  4024 ;;		_adc
  4025 ;;		_voltage
  4026 ;; This function uses a non-reentrant model
  4027 ;;
  4028                           
  4029                           
  4030                           ;psect for function _LCD
  4031  0013                     _LCD:
  4032  0013                     l1208:	
  4033                           ;incstack = 0
  4034                           ; Regs used in _LCD: [wreg+status,2+status,0+pclath+cstack]
  4035                           
  4036                           
  4037                           ;ADC TO FIND VOLTAGE.c: 44: void LCD(int g,int h);ADC TO FIND VOLTAGE.c: 45: {;ADC TO FI
      +                          ND VOLTAGE.c: 46:     RE0=h;
  4038  0013  1873               	btfsc	LCD@h,0
  4039  0014  2816               	goto	u1201
  4040  0015  281A               	goto	u1200
  4041  0016                     u1201:
  4042  0016  1283               	bcf	3,5	;RP0=0, select bank0
  4043  0017  1303               	bcf	3,6	;RP1=0, select bank0
  4044  0018  1409               	bsf	9,0	;volatile
  4045  0019  281D               	goto	u1214
  4046  001A                     u1200:
  4047  001A  1283               	bcf	3,5	;RP0=0, select bank0
  4048  001B  1303               	bcf	3,6	;RP1=0, select bank0
  4049  001C  1009               	bcf	9,0	;volatile
  4050  001D                     u1214:
  4051  001D                     l1210:
  4052                           
  4053                           ;ADC TO FIND VOLTAGE.c: 47:     PORTD=g;
  4054  001D  0871               	movf	LCD@g,w
  4055  001E  0088               	movwf	8	;volatile
  4056  001F                     l1212:
  4057                           
  4058                           ;ADC TO FIND VOLTAGE.c: 48:     pulse();
  4059  001F  120A  158A  25C1  120A  118A  	fcall	_pulse
  4060  0024                     l58:
  4061  0024  0008               	return
  4062  0025                     __end_of_LCD:
  4063                           
  4064                           	psect	text12
  4065  0DC1                     __ptext12:	
  4066 ;; *************** function _pulse *****************
  4067 ;; Defined at:
  4068 ;;		line 37 in file "ADC TO FIND VOLTAGE.c"
  4069 ;; Parameters:    Size  Location     Type
  4070 ;;		None
  4071 ;; Auto vars:     Size  Location     Type
  4072 ;;		None
  4073 ;; Return value:  Size  Location     Type
  4074 ;;                  1    wreg      void 
  4075 ;; Registers used:
  4076 ;;		wreg
  4077 ;; Tracked objects:
  4078 ;;		On entry : 0/0
  4079 ;;		On exit  : 0/0
  4080 ;;		Unchanged: 0/0
  4081 ;; Data sizes:     COMMON   BANK0   BANK1   BANK3   BANK2
  4082 ;;      Params:         0       0       0       0       0
  4083 ;;      Locals:         0       0       0       0       0
  4084 ;;      Temps:          1       0       0       0       0
  4085 ;;      Totals:         1       0       0       0       0
  4086 ;;Total ram usage:        1 bytes
  4087 ;; Hardware stack levels used: 1
  4088 ;; This function calls:
  4089 ;;		Nothing
  4090 ;; This function is called by:
  4091 ;;		_LCD
  4092 ;; This function uses a non-reentrant model
  4093 ;;
  4094                           
  4095                           
  4096                           ;psect for function _pulse
  4097  0DC1                     _pulse:
  4098  0DC1                     l1202:	
  4099                           ;incstack = 0
  4100                           ; Regs used in _pulse: [wreg]
  4101                           
  4102                           
  4103                           ;ADC TO FIND VOLTAGE.c: 39:     RE1=1;
  4104  0DC1  1283               	bcf	3,5	;RP0=0, select bank0
  4105  0DC2  1303               	bcf	3,6	;RP1=0, select bank0
  4106  0DC3  1489               	bsf	9,1	;volatile
  4107  0DC4                     l1204:
  4108                           
  4109                           ;ADC TO FIND VOLTAGE.c: 40:     _delay((unsigned long)((50)*(4000000/4000000.0)));
  4110  0DC4  3010               	movlw	16
  4111  0DC5  00F0               	movwf	??_pulse
  4112  0DC6                     u2397:
  4113  0DC6  0BF0               	decfsz	??_pulse,f
  4114  0DC7  2DC6               	goto	u2397
  4115  0DC8  0000               	nop
  4116  0DC9                     l1206:
  4117                           
  4118                           ;ADC TO FIND VOLTAGE.c: 41:     RE1=0;
  4119  0DC9  1283               	bcf	3,5	;RP0=0, select bank0
  4120  0DCA  1303               	bcf	3,6	;RP1=0, select bank0
  4121  0DCB  1089               	bcf	9,1	;volatile
  4122                           
  4123                           ;ADC TO FIND VOLTAGE.c: 42:     _delay((unsigned long)((50)*(4000000/4000000.0)));
  4124  0DCC  3010               	movlw	16
  4125  0DCD  00F0               	movwf	??_pulse
  4126  0DCE                     u2407:
  4127  0DCE  0BF0               	decfsz	??_pulse,f
  4128  0DCF  2DCE               	goto	u2407
  4129  0DD0  0000               	nop
  4130  0DD1                     l55:
  4131  0DD1  0008               	return
  4132  0DD2                     __end_of_pulse:
  4133  007E                     btemp	set	126	;btemp
  4134  007E                     wtemp0	set	126

Data Sizes:
    Strings     0
    Constant    0
    Data        0
    BSS         6
    Persistent  0
    Stack       0

Auto Spaces:
    Space          Size  Autos    Used
    COMMON           14     14      14
    BANK0            80     64      70
    BANK1            80      0       0
    BANK3            96      0       0
    BANK2            96      0       0

Pointer List with Targets:

    None.

Critical Paths under _main in COMMON

    _main->_adc
    _voltage->___xxtofl
    ___flmul->___xxtofl
    ___fldiv->___xxtofl
    _display->___awdiv
    ___awdiv->___awmod
    _LCD->_pulse

Critical Paths under _main in BANK0

    _main->_voltage
    _voltage->___fldiv
    ___fltol->___flmul
    ___fldiv->___flmul
    _adc->_display
    _display->___awdiv

Critical Paths under _main in BANK1

    None.

Critical Paths under _main in BANK3

    None.

Critical Paths under _main in BANK2

    None.

Call Graph Tables:

 ---------------------------------------------------------------------------------
 (Depth) Function   	        Calls       Base Space   Used Autos Params    Refs
 ---------------------------------------------------------------------------------
 (0) _main                                                 0     0      0   18108
                                _LCD
                                _adc
                            _voltage
 ---------------------------------------------------------------------------------
 (1) _voltage                                             12    12      0    8992
                                             52 BANK0     12    12      0
                                _LCD
                            ___awdiv
                            ___awmod
                            ___fldiv
                            ___flmul
                            ___fltol
                           ___xxtofl
 ---------------------------------------------------------------------------------
 (2) ___xxtofl                                            14    10      4     398
                                              0 COMMON    14    10      4
 ---------------------------------------------------------------------------------
 (2) ___fltol                                             11     7      4     305
                                             26 BANK0     11     7      4
                            ___flmul (ARG)
 ---------------------------------------------------------------------------------
 (2) ___flmul                                             26    18      8    2569
                                              0 BANK0     26    18      8
                          __Umul8_16
                           ___xxtofl (ARG)
 ---------------------------------------------------------------------------------
 (3) __Umul8_16                                            9     7      2     799
                                              0 COMMON     9     7      2
 ---------------------------------------------------------------------------------
 (2) ___fldiv                                             26    18      8    1273
                                             26 BANK0     26    18      8
                            ___flmul (ARG)
                           ___xxtofl (ARG)
 ---------------------------------------------------------------------------------
 (1) _adc                                                  2     2      0    6944
                                             12 COMMON     2     2      0
                                _LCD
                            _display
 ---------------------------------------------------------------------------------
 (2) _display                                             10     8      2    4772
                                              4 BANK0     10     8      2
                                _LCD
                            ___awdiv
                            ___awmod
 ---------------------------------------------------------------------------------
 (2) ___awmod                                              7     3      4    1056
                                              0 COMMON     7     3      4
 ---------------------------------------------------------------------------------
 (2) ___awdiv                                              9     5      4    1060
                                              7 COMMON     5     1      4
                                              0 BANK0      4     4      0
                            ___awmod (ARG)
 ---------------------------------------------------------------------------------
 (2) _LCD                                                  4     0      4    2172
                                              1 COMMON     4     0      4
                              _pulse
 ---------------------------------------------------------------------------------
 (3) _pulse                                                1     1      0       0
                                              0 COMMON     1     1      0
 ---------------------------------------------------------------------------------
 Estimated maximum stack depth 3
 ---------------------------------------------------------------------------------

 Call Graph Graphs:

 _main (ROOT)
   _LCD
     _pulse
   _adc
     _LCD
     _display
       _LCD
       ___awdiv
         ___awmod (ARG)
       ___awmod
   _voltage
     _LCD
     ___awdiv
     ___awmod
     ___fldiv
       ___flmul (ARG)
         __Umul8_16
         ___xxtofl (ARG)
       ___xxtofl (ARG)
     ___flmul
     ___fltol
       ___flmul (ARG)
     ___xxtofl

 Address spaces:
Name               Size   Autos  Total    Cost      Usage
BITCOMMON            E      0       0       0        0.0%
EEDATA             100      0       0       0        0.0%
NULL                 0      0       0       0        0.0%
CODE                 0      0       0       0        0.0%
COMMON               E      E       E       1      100.0%
BITSFR0              0      0       0       1        0.0%
SFR0                 0      0       0       1        0.0%
BITSFR1              0      0       0       2        0.0%
SFR1                 0      0       0       2        0.0%
STACK                0      0       0       2        0.0%
ABS                  0      0      54       3        0.0%
BITBANK0            50      0       0       4        0.0%
BITSFR3              0      0       0       4        0.0%
SFR3                 0      0       0       4        0.0%
BANK0               50     40      46       5       87.5%
BITSFR2              0      0       0       5        0.0%
SFR2                 0      0       0       5        0.0%
BITBANK1            50      0       0       6        0.0%
BANK1               50      0       0       7        0.0%
BITBANK3            60      0       0       8        0.0%
BANK3               60      0       0       9        0.0%
BITBANK2            60      0       0      10        0.0%
BANK2               60      0       0      11        0.0%
DATA                 0      0      54      12        0.0%


Microchip Technology PIC Macro Assembler V2.32 build 20210201212658 
Symbol Table                                                                                   Tue Apr 04 21:30:22 2023

           ___fldiv@aexp 0053             ___fldiv@bexp 0052             ___fldiv@sign 004B  
                     l61 00D7                       l55 0DD1                       l71 0FFF  
                     l64 0F89                       l58 0024                       l74 02B5  
                     _GO 00F9                       _DV 0060             ___awdiv@sign 0021  
    __Umul8_16@word_mpld 0076                      l313 0EFB                      l326 0E92  
                    l511 0492                      l353 0F62                      l346 0F77  
                    l531 0476                      l356 0F77                      l533 0486  
                    l525 0404                      l509 0312                      l606 015B  
                    l607 0167                      l561 07E7                      l570 0DF8  
                    l555 075F                      l549 07F3                      l568 0DE6  
                    l593 00FA                      l595 0191                      l599 013F  
                    _LCD 0013                      _RE0 0048                      _RE1 0049  
                    _adc 0F78                      _low 0062             ___awmod@sign 0076  
           ___flmul@aexp 0032             ___flmul@bexp 0033             ___flmul@sign 002D  
           ___flmul@temp 0038             ___flmul@prod 0034                     LCD@g 0071  
                   LCD@h 0073                     ?_LCD 0071             ___fltol@exp1 0044  
                   ?_adc 0070                     l1202 0DC1                     l1210 001D  
                   l1204 0DC4                     l1212 001F                     l1220 0E9F  
                   l1300 0DDC                     l1206 0DC9                     l1230 0EB0  
                   l1222 0EA1                     l1214 0E93                     l1310 0025  
                   l1302 0DE0                     l1208 0013                     l1240 0EC8  
                   l1232 0EB6                     l1224 0EA5                     l1216 0E96  
                   l1304 0DEF                     l1320 0F27                     l1312 0EFC  
                   l1242 0ED9                     l1234 0EB9                     l1250 0EED  
                   l1226 0EAA                     l1218 0E9A                     l1410 036B  
                   l1402 0341                     l1306 0DF4                     l1322 0F28  
                   l1314 0F09                     l1252 0EF2                     l1244 0EDF  
                   l1236 0EC0                     l1228 0EAE                     l1260 0E3B  
                   l1420 0389                     l1412 036D                     l1404 0353  
                   l1500 04AA                     l1324 0F30                     l1254 0EF7  
                   l1246 0EE0                     l1238 0EC4                     l1270 0E4F  
                   l1262 0E3F                     l1414 0372                     l1422 0392  
                   l1430 03B7                     l1406 035B                     l1350 02BD  
                   l1510 04C6                     l1502 04AF                     l1342 0F57  
                   l1334 0F3E                     l1326 0F32                     l1318 0F12  
                   l1248 0EE7                     l1280 0E67                     l1272 0E55  
                   l1264 0E44                     l1440 03D4                     l1432 03BD  
                   l1424 03A4                     l1416 0384                     l1408 0363  
                   l1360 02D2                     l1352 02C3                     l1600 0769  
                   l1520 04DB                     l1512 04CC                     l1504 04B7  
                   l1344 0F67                     l1328 0F36                     l1336 0F50  
                   l1290 0E89                     l1282 0E71                     l1274 0E58  
                   l1266 0E46                     l1258 0E3A                     l1450 03E9  
                   l1442 03D5                     l1434 03C5                     l1426 03A5  
                   l1418 0388                     l1370 02EA                     l1362 02DA  
                   l1354 02C7                     l1610 07A7                     l1602 0777  
                   l1530 04F7                     l1522 04E3                     l1514 04D0  
                   l1506 04B9                     l1346 0F6C                     l1292 0E8E  
                   l1284 0E77                     l1276 0E5F                     l1268 0E4A  
                   l1700 0FE5                     l1460 040E                     l1452 03ED  
                   l1444 03DE                     l1436 03C7                     l1428 03B3  
                   l1380 02FF                     l1372 02F0                     l1364 02DB  
                   l1356 02C8                     l1348 02B6                     l1620 07DB  
                   l1612 07B2                     l1604 077B                     l1540 053A  
                   l1524 04E5                     l1516 04D1                     l1508 04C1  
                   l1286 0E7E                     l1278 0E63                     l1702 0FEE  
                   l1470 044C                     l1462 041C                     l1454 0401  
                   l1438 03D0                     l1446 03E4                     l1390 0326  
                   l1382 0307                     l1374 02F4                     l1358 02CD  
                   l1366 02DD                     l1622 07DF                     l1614 07C1  
                   l1606 0794                     l1550 05C3                     l1542 0556  
                   l1534 0500                     l1526 04ED                     l1518 04D6  
                   l1630 00D9                     l1710 01E7                     l1288 0E84  
                   l1704 0FF6                     l1480 047C                     l1472 045A  
                   l1464 0420                     l1448 03E8                     l1392 032A  
                   l1384 0308                     l1376 02F5                     l1368 02E5  
                   l1296 0DD3                     l1624 07E0                     l1616 07CB  
                   l1608 079A                     l1560 0636                     l1552 05D3  
                   l1544 0582                     l1536 0510                     l1528 04F2  
                   l1632 00DE                     l1720 0E06                     l1712 0DF9  
                   l1482 0480                     l1474 0469                     l1466 0439  
                   l1458 0409                     l1378 02FA                     l1386 030A  
                   l1298 0DD5                     l1626 07EB                     l1618 07CD  
                   l1570 06E3                     l1562 0653                     l1554 05F0  
                   l1546 059E                     l1538 051D                     l1490 0493  
                   l1650 0128                     l1642 010B                     l1634 00E2  
                   l1706 0192                     l1730 0E14                     l1722 0E09  
                   l1714 0DFD                     l1484 0482                     l1476 046D  
                   l1468 043F                     l1388 031A                     l1396 0333  
                   l1580 072F                     l1572 070B                     l1564 0680  
                   l1556 0600                     l1548 05BA                     l1492 049A  
                   l1660 015F                     l1652 0136                     l1644 0110  
                   l1636 00F2                     l1708 019E                     l1732 0E20  
                   l1724 0E0C                     l1716 0E00                     l1478 0475  
                   l1398 0338                     l1590 0744                     l1582 0730  
                   l1574 0714                     l1566 0690                     l1558 061D  
                   l1494 04A0                     l1670 0189                     l1662 0169  
                   l1654 0146                     l1646 011D                     l1638 0102  
                   l1734 0E2C                     l1726 0E0F                     l1718 0E03  
                   l1680 0F8D                     l1592 0748                     l1584 0739  
                   l1576 0722                     l1568 06BD                     l1496 04A4  
                   l1664 017F                     l1656 0151                     l1648 0124  
                   l1736 0E31                     l1728 0E10                     l1690 0FBA  
                   l1682 0F9F                     l1674 0F78                     l1594 075C  
                   l1578 072B                     l1586 073F                     l1498 04A5  
                   l1666 0184                     l1658 0155                     l1692 0FC2  
                   l1684 0FA5                     l1676 0F84                     l1588 0743  
                   l1668 0188                     l1694 0FCB                     l1686 0FA9  
                   l1678 0F88                     l1598 0764                     l1696 0FD4  
                   l1688 0FB2                     l1698 0FDC                     u1200 001A  
                   u1201 0016                     u2001 0672                     u2002 0679  
                   u2011 069F                     u2003 0680                     u1300 0EED  
                   u1220 0E9A                     u2100 0743                     u2020 06C9  
                   u2012 06A6                     u1301 0EEC                     u1221 0E99  
                   u2101 0742                     u2013 06AD                     u1214 001D  
                   u1310 0EF2                     u1230 0EA5                     u2110 0748  
                   u1311 0EF1                     u1231 0EA4                     u2111 0747  
                   u2031 06D5                     u1240 0EB6                     u1400 0E89  
                   u1320 0E3F                     u2120 075C                     u2040 06F1  
                   u2032 06DC                     u2200 00DE                     u1241 0EB5  
                   u1401 0E88                     u1321 0E3E                     u2121 075B  
                   u2033 06E3                     u2025 06C4                     u2201 00DD  
                   u1330 0E4A                     u1410 0DE0                     u2130 0763  
                   u2210 00E2                     u1331 0E49                     u1411 0DDF  
                   u2131 0762                     u2051 06FD                     u2211 00E1  
                   u1260 0EC8                     u1340 0E55                     u2140 0769  
                   u2052 0704                     u1500 0F56                     u2300 015F  
                   u2220 0102                     u1261 0EC7                     u1341 0E54  
                   u2141 0768                     u2053 070B                     u2045 06EC  
                   u1501 0F55                     u2301 015E                     u2221 0101  
                   u1430 0DF4                     u2150 077B                     u2310 0174  
                   u1255 0EBA                     u1431 0DF3                     u2151 077A  
                   u1280 0ED9                     u1360 0E67                     u1600 031A  
                   u2160 078A                     u2080 072F                     u1520 0F67  
                   u1440 0F09                     u2320 0184                     u2240 0123  
                   u1281 0ED8                     u1361 0E66                     u1601 0319  
                   u1425 0DE7                     u2081 072E                     u2065 070D  
                   u1521 0F66                     u1441 0F08                     u2321 0183  
                   u2241 0122                     u1370 0E71                     u1610 0338  
                   u2170 07A7                     u1530 0F6C                     u1450 0F20  
                   u2330 0188                     u1275 0EC9                     u1371 0E70  
                   u1355 0E59                     u1611 0337                     u2171 07A6  
                   u2075 0724                     u1531 0F6B                     u1515 0F59  
                   u2331 0187                     u2315 016F                     u2235 0115  
                   u2340 0F8D                     u1620 0372                     u1540 02C7  
                   u2180 07C1                     u1460 0F36                     u2260 0145  
                   u1285 0ED5                     u2341 0F8C                     u1621 0371  
                   u1541 02C6                     u2181 07C0                     u2165 0785  
                   u1461 0F35                     u2261 0144                     u1390 0E84  
                   u2350 0FA5                     u1710 03D4                     u1550 02CD  
                   u2190 07DF                     u1470 0F3D                     u2407 0DCE  
                   u1295 0EE1                     u1391 0E83                     u1375 0E6D  
                   u2351 0FA4                     u1711 03D3                     u1551 02CC  
                   u2191 07DE                     u2175 07A3                     u2095 0732  
                   u1471 0F3C                     u1455 0F1B                     u2255 0137  
                   u2360 0FBA                     u1800 044C                     u1560 02D2  
                   u2280 0155                     u1385 0E78                     u2361 0FB9  
                   u1801 044B                     u1705 03C9                     u1561 02D1  
                   u2185 07BD                     u2281 0154                     u2370 0FD4  
                   u1810 0469                     u1730 03E8                     u1650 0388  
                   u1570 02F4                     u1490 0F4F                     u2290 015B  
                   u2371 0FD3                     u1811 0468                     u1731 03E7  
                   u1651 0387                     u1635 0374                     u1571 02F3  
                   u1491 0F4E                     u2291 015A                     u2275 014A  
                   u2380 0FEE                     u1820 0480                     u1740 03ED  
                   u1580 02FA                     u1900 04F7                     u2381 0FED  
                   u1821 047F                     u1805 0448                     u1741 03EC  
                   u1725 03D7                     u1645 037D                     u1581 02F9  
                   u1901 04F6                     u1485 0F3F                     u1750 0401  
                   u1670 03A4                     u1590 02FF                     u1830 04A4  
                   u1815 0465                     u1751 0400                     u1671 03A3  
                   u1591 02FE                     u1911 0548                     u1831 04A3  
                   u1760 0408                     u1680 03BD                     u1912 054F  
                   u1840 04AA                     u1761 0407                     u1681 03BC  
                   u1665 038B                     u1921 0564                     u1913 0556  
                   u1841 04A9                     u1770 040E                     u1690 03C5  
                   u1922 056B                     u1850 04AF                     u1771 040D  
                   u1691 03C4                     u1675 03A0                     u1931 0590  
                   u1923 0572                     u1851 04AE                     u1780 0420  
                   u1932 0597                     u1860 04D0                     u2397 0DC6  
                   u1781 041F                     u1941 05AC                     u1933 059E  
                   u1861 04CF                     u1790 042F                     u1942 05B3  
                   u1870 04D6                     u1943 05BA                     u1871 04D5  
                   u1880 04DB                     u1961 05E2                     u1881 04DA  
                   u1962 05E9                     u1890 04F2                     u1795 042A  
                   u1971 060F                     u1963 05F0                     u1955 05BC  
                   u1891 04F1                     u1972 0616                     u1973 061D  
                   u1991 0645                     u1992 064C                     u1993 0653  
                   u1985 061F                     _high 0064                     _main 0DF9  
                   btemp 007E                     start 0000          ___fldiv@new_exp 004C  
                  ??_LCD 0075                    ??_adc 007C            ___fltol@sign1 0043  
                  ?_main 0070          __end_of___fldiv 0493          __end_of___awdiv 0EFC  
        __end_of___awmod 0E93          __end_of___flmul 07F4          __end_of___fltol 0F78  
                  _ANSEL 0188          ___awdiv@divisor 0077          ___awdiv@counter 0020  
                  _PORTA 0005                    _PORTD 0008                    _PORTE 0009  
                  _TRISA 0085                    _TRISD 0088                    _TRISE 0089  
        __end_of_display 00D8                    _pulse 0DC1                    status 0003  
                  wtemp0 007E          __end_of_voltage 02B6          __initialization 07F4  
           __end_of_main 0E3A                   ??_main 007E                   _ADCON0 001F  
                 _ADCON1 009F                   _ADRESH 001E                   _ADRESL 009E  
       ___awdiv@dividend 0079                   ?_pulse 0070                   _ANSELH 0189  
       __end_of___xxtofl 0192                ??___fldiv 0042                ??___awdiv 007B  
              ??___awmod 0074                ??___flmul 0028                ??___fltol 003E  
       ___awdiv@quotient 0022          ___awmod@divisor 0070          ___awmod@counter 0075  
              ??_display 007C       __size_of__Umul8_16 0027                ??_voltage 007E  
           ___xxtofl@arg 007A             ___xxtofl@exp 0079             ___xxtofl@val 0070  
__end_of__initialization 07FC               ___fltol@f1 003A           __pcstackCOMMON 0070  
          __end_of_pulse 0DD2                  ??_pulse 0070               __pbssBANK0 0060  
      __end_of__Umul8_16 0DF9               __pmaintext 0DF9                ?___xxtofl 0070  
                ___fldiv 02B6                  ___awdiv 0E93                  ___awmod 0E3A  
                ___flmul 0493                  ___fltol 0EFC                  __ptext1 0192  
                __ptext2 00D8                  __ptext3 0EFC                  __ptext4 0493  
                __ptext5 0DD2                  __ptext6 02B6                  __ptext7 0F78  
                __ptext8 0025                  __ptext9 0E3A                  _display 0025  
           __size_of_LCD 0012             __size_of_adc 0088               ??___xxtofl 0074  
       ___awmod@dividend 0072                  _voltage 0192     end_of_initialization 07FC  
          ___xxtofl@sign 0078              ___fldiv@grs 004E              ___fldiv@rem 0047  
            ___flmul@grs 002E      start_initialization 07F4              __end_of_LCD 0025  
            __end_of_adc 1000                __Umul8_16 0DD2                ___fldiv@a 003A  
              ___fldiv@b 003E                ___flmul@a 0024                ___flmul@b 0020  
              ___latbits 0002            __pcstackBANK0 0020        __size_of___xxtofl 00BA  
               ?___fldiv 003A                 ?___awdiv 0077                 ?___awmod 0070  
               ?___flmul 0020                 ?___fltol 003A               ?__Umul8_16 0070  
               ?_display 0024                 ?_voltage 0070           __size_of_pulse 0011  
            ??__Umul8_16 0072         __size_of___fldiv 01DD         __size_of___awdiv 0069  
       __size_of___awmod 0059         __size_of___flmul 0361         __size_of___fltol 007C  
       __size_of_display 00B3                 ___xxtofl 00D8                 __ptext10 0E93  
               __ptext11 0013                 __ptext12 0DC1         __size_of_voltage 0124  
          __size_of_main 0041                 display@a 0026                 display@b 0028  
               display@c 002A                 display@d 002C                 display@k 0024  
 __Umul8_16@multiplicand 0070                 voltage@a 0058                 voltage@b 005A  
               voltage@c 005C                 voltage@d 005E                 voltage@x 0054  
   __Umul8_16@multiplier 0078        __Umul8_16@product 0074  
